ARM GAS  C:\Users\Administrator\AppData\Local\Temp\ccjIMz1R.s 			page 1


   1              		.cpu cortex-m3
   2              		.arch armv7-m
   3              		.fpu softvfp
   4              		.eabi_attribute 20, 1
   5              		.eabi_attribute 21, 1
   6              		.eabi_attribute 23, 3
   7              		.eabi_attribute 24, 1
   8              		.eabi_attribute 25, 1
   9              		.eabi_attribute 26, 1
  10              		.eabi_attribute 30, 1
  11              		.eabi_attribute 34, 1
  12              		.eabi_attribute 18, 4
  13              		.file	"ADCAPP.c"
  14              		.text
  15              	.Ltext0:
  16              		.cfi_sections	.debug_frame
  17              		.file 1 "User/Source/ADCAPP.c"
  18              		.section	.text.HAL_ADC_ConvCpltCallback,"ax",%progbits
  19              		.align	1
  20              		.global	HAL_ADC_ConvCpltCallback
  21              		.syntax unified
  22              		.thumb
  23              		.thumb_func
  25              	HAL_ADC_ConvCpltCallback:
  26              	.LVL0:
  27              	.LFB75:
   1:User/Source/ADCAPP.c **** #include "ADCAPP.h"
   2:User/Source/ADCAPP.c **** 
   3:User/Source/ADCAPP.c **** 
   4:User/Source/ADCAPP.c **** // 1. 改为全局变量（避免局部变量随机值）+ 类型匹配DMA的uint32_t
   5:User/Source/ADCAPP.c **** uint32_t adcbuf[11] = {0}; 
   6:User/Source/ADCAPP.c **** // 2. 添加DMA传输完成标记（核心！解决脏读）
   7:User/Source/ADCAPP.c **** uint8_t adc_dma_complete = 0;
   8:User/Source/ADCAPP.c **** 
   9:User/Source/ADCAPP.c **** 
  10:User/Source/ADCAPP.c **** 
  11:User/Source/ADCAPP.c **** // DMA传输完成回调函数（CubeMX配置了DMA中断才会触发）
  12:User/Source/ADCAPP.c **** void HAL_ADC_ConvCpltCallback(ADC_HandleTypeDef* hadc)
  13:User/Source/ADCAPP.c **** {
  28              		.loc 1 13 1 view -0
  29              		.cfi_startproc
  30              		@ args = 0, pretend = 0, frame = 0
  31              		@ frame_needed = 0, uses_anonymous_args = 0
  32              		@ link register save eliminated.
  14:User/Source/ADCAPP.c ****   if (hadc->Instance == ADC1)
  33              		.loc 1 14 3 view .LVU1
  34              		.loc 1 14 11 is_stmt 0 view .LVU2
  35 0000 0268     		ldr	r2, [r0]
  36              		.loc 1 14 6 view .LVU3
  37 0002 044B     		ldr	r3, .L4
  38 0004 9A42     		cmp	r2, r3
  39 0006 00D0     		beq	.L3
  40              	.L1:
  15:User/Source/ADCAPP.c ****   {
  16:User/Source/ADCAPP.c ****     adc_dma_complete = 1; // 标记数据传输完成
  17:User/Source/ADCAPP.c ****   }
  18:User/Source/ADCAPP.c **** }
ARM GAS  C:\Users\Administrator\AppData\Local\Temp\ccjIMz1R.s 			page 2


  41              		.loc 1 18 1 view .LVU4
  42 0008 7047     		bx	lr
  43              	.L3:
  16:User/Source/ADCAPP.c ****   }
  44              		.loc 1 16 5 is_stmt 1 view .LVU5
  16:User/Source/ADCAPP.c ****   }
  45              		.loc 1 16 22 is_stmt 0 view .LVU6
  46 000a 034B     		ldr	r3, .L4+4
  47 000c 0122     		movs	r2, #1
  48 000e 1A70     		strb	r2, [r3]
  49              		.loc 1 18 1 view .LVU7
  50 0010 FAE7     		b	.L1
  51              	.L5:
  52 0012 00BF     		.align	2
  53              	.L4:
  54 0014 00240140 		.word	1073816576
  55 0018 00000000 		.word	adc_dma_complete
  56              		.cfi_endproc
  57              	.LFE75:
  59              		.section	.text.adc_to_voltage,"ax",%progbits
  60              		.align	1
  61              		.global	adc_to_voltage
  62              		.syntax unified
  63              		.thumb
  64              		.thumb_func
  66              	adc_to_voltage:
  67              	.LVL1:
  68              	.LFB76:
  19:User/Source/ADCAPP.c **** 
  20:User/Source/ADCAPP.c **** 
  21:User/Source/ADCAPP.c **** /**
  22:User/Source/ADCAPP.c ****  * @brief 将ADC采样值转换为实际输入电压
  23:User/Source/ADCAPP.c ****  * @param adc_value: ADC采集到的数字值（0~4095）
  24:User/Source/ADCAPP.c ****  * @return 实际输入电压值，单位V（范围约-20.12~+20.12V）
  25:User/Source/ADCAPP.c ****  */
  26:User/Source/ADCAPP.c **** float adc_to_voltage(uint16_t adc_value)
  27:User/Source/ADCAPP.c **** {
  69              		.loc 1 27 1 is_stmt 1 view -0
  70              		.cfi_startproc
  71              		@ args = 0, pretend = 0, frame = 0
  72              		@ frame_needed = 0, uses_anonymous_args = 0
  73              		.loc 1 27 1 is_stmt 0 view .LVU9
  74 0000 08B5     		push	{r3, lr}
  75              	.LCFI0:
  76              		.cfi_def_cfa_offset 8
  77              		.cfi_offset 3, -8
  78              		.cfi_offset 14, -4
  28:User/Source/ADCAPP.c ****     // 1. 先将ADC数值转换为ADC引脚的电压（ADC_VSNL2）
  29:User/Source/ADCAPP.c ****     float adc_pin_voltage = (float)adc_value * ADC_REF_VOLTAGE / ADC_RESOLUTION;
  79              		.loc 1 29 5 is_stmt 1 view .LVU10
  80              		.loc 1 29 29 is_stmt 0 view .LVU11
  81 0002 FFF7FEFF 		bl	__aeabi_ui2f
  82              	.LVL2:
  83              		.loc 1 29 46 view .LVU12
  84 0006 0849     		ldr	r1, .L8
  85 0008 FFF7FEFF 		bl	__aeabi_fmul
  86              	.LVL3:
ARM GAS  C:\Users\Administrator\AppData\Local\Temp\ccjIMz1R.s 			page 3


  87              		.loc 1 29 11 view .LVU13
  88 000c 0749     		ldr	r1, .L8+4
  89 000e FFF7FEFF 		bl	__aeabi_fdiv
  90              	.LVL4:
  91 0012 0146     		mov	r1, r0
  92              	.LVL5:
  30:User/Source/ADCAPP.c ****     
  31:User/Source/ADCAPP.c ****     // 2. 反向计算分压后的电压（V_div）
  32:User/Source/ADCAPP.c ****     float v_div = (adc_pin_voltage * LEVEL_SHIFT_RATIO) - ADC_REF_VOLTAGE;
  93              		.loc 1 32 5 is_stmt 1 view .LVU14
  94              		.loc 1 32 36 is_stmt 0 view .LVU15
  95 0014 FFF7FEFF 		bl	__aeabi_fadd
  96              	.LVL6:
  97              		.loc 1 32 11 view .LVU16
  98 0018 0349     		ldr	r1, .L8
  99 001a FFF7FEFF 		bl	__aeabi_fsub
 100              	.LVL7:
  33:User/Source/ADCAPP.c ****     
  34:User/Source/ADCAPP.c ****     // 3. 反向计算原始输入电压（VSNL2）
  35:User/Source/ADCAPP.c ****     float input_voltage = v_div / VOLTAGE_DIV_RATIO;
 101              		.loc 1 35 5 is_stmt 1 view .LVU17
 102              		.loc 1 35 11 is_stmt 0 view .LVU18
 103 001e 0449     		ldr	r1, .L8+8
 104 0020 FFF7FEFF 		bl	__aeabi_fdiv
 105              	.LVL8:
  36:User/Source/ADCAPP.c ****     
  37:User/Source/ADCAPP.c ****     return input_voltage;
 106              		.loc 1 37 5 is_stmt 1 view .LVU19
  38:User/Source/ADCAPP.c **** }
 107              		.loc 1 38 1 is_stmt 0 view .LVU20
 108 0024 08BD     		pop	{r3, pc}
 109              	.L9:
 110 0026 00BF     		.align	2
 111              	.L8:
 112 0028 33335340 		.word	1079194419
 113 002c 00F07F45 		.word	1166012416
 114 0030 9EEF273E 		.word	1042804638
 115              		.cfi_endproc
 116              	.LFE76:
 118              		.section	.rodata.print_voltage.str1.4,"aMS",%progbits,1
 119              		.align	2
 120              	.LC0:
 121 0000 56444420 		.ascii	"VDD voltage = %.2f V \015\012\000"
 121      766F6C74 
 121      61676520 
 121      3D20252E 
 121      32662056 
 122              		.align	2
 123              	.LC1:
 124 0018 5653504C 		.ascii	"VSPL voltage = %.2f V \015\012\000"
 124      20766F6C 
 124      74616765 
 124      203D2025 
 124      2E326620 
 125 0031 000000   		.align	2
 126              	.LC2:
 127 0034 56444431 		.ascii	"VDD15V voltage = %.2f V \015\012\000"
ARM GAS  C:\Users\Administrator\AppData\Local\Temp\ccjIMz1R.s 			page 4


 127      35562076 
 127      6F6C7461 
 127      6765203D 
 127      20252E32 
 128 004f 00       		.align	2
 129              	.LC3:
 130 0050 56434F4D 		.ascii	"VCOM voltage = %.2f V \015\012\000"
 130      20766F6C 
 130      74616765 
 130      203D2025 
 130      2E326620 
 131 0069 000000   		.align	2
 132              	.LC4:
 133 006c 56474E20 		.ascii	"VGN voltage = %.2f V \015\012\000"
 133      766F6C74 
 133      61676520 
 133      3D20252E 
 133      32662056 
 134              		.align	2
 135              	.LC5:
 136 0084 56534E20 		.ascii	"VSN voltage = %.2f V \015\012\000"
 136      766F6C74 
 136      61676520 
 136      3D20252E 
 136      32662056 
 137              		.align	2
 138              	.LC6:
 139 009c 56475020 		.ascii	"VGP voltage = %.2f V \015\012\000"
 139      766F6C74 
 139      61676520 
 139      3D20252E 
 139      32662056 
 140              		.align	2
 141              	.LC7:
 142 00b4 56535020 		.ascii	"VSP voltage = %.2f V \015\012\000"
 142      766F6C74 
 142      61676520 
 142      3D20252E 
 142      32662056 
 143              		.section	.text.print_voltage,"ax",%progbits
 144              		.align	1
 145              		.global	print_voltage
 146              		.syntax unified
 147              		.thumb
 148              		.thumb_func
 150              	print_voltage:
 151              	.LFB77:
  39:User/Source/ADCAPP.c **** 
  40:User/Source/ADCAPP.c **** /**
  41:User/Source/ADCAPP.c ****  * @brief 打印ADC值对应的实际电压
  42:User/Source/ADCAPP.c ****  * @param adc_value: ADC采集到的数字值（0~4095）
  43:User/Source/ADCAPP.c ****  */
  44:User/Source/ADCAPP.c **** void print_voltage(void)
  45:User/Source/ADCAPP.c **** {
 152              		.loc 1 45 1 is_stmt 1 view -0
 153              		.cfi_startproc
 154              		@ args = 0, pretend = 0, frame = 0
ARM GAS  C:\Users\Administrator\AppData\Local\Temp\ccjIMz1R.s 			page 5


 155              		@ frame_needed = 0, uses_anonymous_args = 0
 156 0000 10B5     		push	{r4, lr}
 157              	.LCFI1:
 158              		.cfi_def_cfa_offset 8
 159              		.cfi_offset 4, -8
 160              		.cfi_offset 14, -4
  46:User/Source/ADCAPP.c ****     // 4. 重置DMA完成标记
  47:User/Source/ADCAPP.c ****   adc_dma_complete = 0;
 161              		.loc 1 47 3 view .LVU22
 162              		.loc 1 47 20 is_stmt 0 view .LVU23
 163 0002 304B     		ldr	r3, .L13
 164 0004 0022     		movs	r2, #0
 165 0006 1A70     		strb	r2, [r3]
  48:User/Source/ADCAPP.c ****   
  49:User/Source/ADCAPP.c ****   // 5. 启动ADC DMA采样（校准只需在初始化时执行一次，此处注释）
  50:User/Source/ADCAPP.c ****   // HAL_ADCEx_Calibration_Start(&hadc1); // 移到main函数初始化阶段
  51:User/Source/ADCAPP.c ****   HAL_ADC_Start_DMA(&hadc1, adcbuf, 11); // 无需强制类型转换（adcbuf已是uint32_t）
 166              		.loc 1 51 3 is_stmt 1 view .LVU24
 167 0008 0B22     		movs	r2, #11
 168 000a 2F49     		ldr	r1, .L13+4
 169 000c 2F48     		ldr	r0, .L13+8
 170 000e FFF7FEFF 		bl	HAL_ADC_Start_DMA
 171              	.LVL9:
  52:User/Source/ADCAPP.c ****   
  53:User/Source/ADCAPP.c ****   // 6. 等待DMA传输完成（核心！避免脏读）
  54:User/Source/ADCAPP.c ****   while (adc_dma_complete == 0);
 172              		.loc 1 54 3 view .LVU25
 173              	.L11:
 174              		.loc 1 54 27 discriminator 1 view .LVU26
 175 0012 2C4B     		ldr	r3, .L13
 176 0014 1B78     		ldrb	r3, [r3]	@ zero_extendqisi2
 177 0016 002B     		cmp	r3, #0
 178 0018 FBD0     		beq	.L11
  55:User/Source/ADCAPP.c ****   
  56:User/Source/ADCAPP.c ****   // 7. 停止ADC DMA（避免影响下一次采样）
  57:User/Source/ADCAPP.c ****   HAL_ADC_Stop_DMA(&hadc1);
 179              		.loc 1 57 3 view .LVU27
 180 001a 2C48     		ldr	r0, .L13+8
 181 001c FFF7FEFF 		bl	HAL_ADC_Stop_DMA
 182              	.LVL10:
  58:User/Source/ADCAPP.c ****   
  59:User/Source/ADCAPP.c ****   // 8. 循环打印所有通道
  60:User/Source/ADCAPP.c ****   // for (uint8_t i = 0; i < 11; i++)
  61:User/Source/ADCAPP.c ****   // {
  62:User/Source/ADCAPP.c ****   //   printf("ADC channal : %d ;voltage = %.2f V \r\n", i, adc_to_voltage(adcbuf[i]));
  63:User/Source/ADCAPP.c ****   // }
  64:User/Source/ADCAPP.c ****   printf("VDD voltage = %.2f V \r\n", adc_to_voltage(adcbuf[0]));
 183              		.loc 1 64 3 view .LVU28
 184              		.loc 1 64 60 is_stmt 0 view .LVU29
 185 0020 294C     		ldr	r4, .L13+4
 186              		.loc 1 64 39 view .LVU30
 187 0022 2088     		ldrh	r0, [r4]
 188 0024 FFF7FEFF 		bl	adc_to_voltage
 189              	.LVL11:
 190              		.loc 1 64 3 discriminator 1 view .LVU31
 191 0028 FFF7FEFF 		bl	__aeabi_f2d
 192              	.LVL12:
ARM GAS  C:\Users\Administrator\AppData\Local\Temp\ccjIMz1R.s 			page 6


 193 002c 0246     		mov	r2, r0
 194 002e 0B46     		mov	r3, r1
 195 0030 2748     		ldr	r0, .L13+12
 196 0032 FFF7FEFF 		bl	printf
 197              	.LVL13:
  65:User/Source/ADCAPP.c ****   printf("VSPL voltage = %.2f V \r\n", adc_to_voltage(adcbuf[2]));
 198              		.loc 1 65 3 is_stmt 1 view .LVU32
 199              		.loc 1 65 40 is_stmt 0 view .LVU33
 200 0036 2089     		ldrh	r0, [r4, #8]
 201 0038 FFF7FEFF 		bl	adc_to_voltage
 202              	.LVL14:
 203              		.loc 1 65 3 discriminator 1 view .LVU34
 204 003c FFF7FEFF 		bl	__aeabi_f2d
 205              	.LVL15:
 206 0040 0246     		mov	r2, r0
 207 0042 0B46     		mov	r3, r1
 208 0044 2348     		ldr	r0, .L13+16
 209 0046 FFF7FEFF 		bl	printf
 210              	.LVL16:
  66:User/Source/ADCAPP.c ****   printf("VDD15V voltage = %.2f V \r\n", adc_to_voltage(adcbuf[4]));
 211              		.loc 1 66 3 is_stmt 1 view .LVU35
 212              		.loc 1 66 42 is_stmt 0 view .LVU36
 213 004a 208A     		ldrh	r0, [r4, #16]
 214 004c FFF7FEFF 		bl	adc_to_voltage
 215              	.LVL17:
 216              		.loc 1 66 3 discriminator 1 view .LVU37
 217 0050 FFF7FEFF 		bl	__aeabi_f2d
 218              	.LVL18:
 219 0054 0246     		mov	r2, r0
 220 0056 0B46     		mov	r3, r1
 221 0058 1F48     		ldr	r0, .L13+20
 222 005a FFF7FEFF 		bl	printf
 223              	.LVL19:
  67:User/Source/ADCAPP.c ****   printf("VCOM voltage = %.2f V \r\n", adc_to_voltage(adcbuf[5]));
 224              		.loc 1 67 3 is_stmt 1 view .LVU38
 225              		.loc 1 67 40 is_stmt 0 view .LVU39
 226 005e A08A     		ldrh	r0, [r4, #20]
 227 0060 FFF7FEFF 		bl	adc_to_voltage
 228              	.LVL20:
 229              		.loc 1 67 3 discriminator 1 view .LVU40
 230 0064 FFF7FEFF 		bl	__aeabi_f2d
 231              	.LVL21:
 232 0068 0246     		mov	r2, r0
 233 006a 0B46     		mov	r3, r1
 234 006c 1B48     		ldr	r0, .L13+24
 235 006e FFF7FEFF 		bl	printf
 236              	.LVL22:
  68:User/Source/ADCAPP.c ****   printf("VGN voltage = %.2f V \r\n", adc_to_voltage(adcbuf[6]));
 237              		.loc 1 68 3 is_stmt 1 view .LVU41
 238              		.loc 1 68 39 is_stmt 0 view .LVU42
 239 0072 208B     		ldrh	r0, [r4, #24]
 240 0074 FFF7FEFF 		bl	adc_to_voltage
 241              	.LVL23:
 242              		.loc 1 68 3 discriminator 1 view .LVU43
 243 0078 FFF7FEFF 		bl	__aeabi_f2d
 244              	.LVL24:
 245 007c 0246     		mov	r2, r0
ARM GAS  C:\Users\Administrator\AppData\Local\Temp\ccjIMz1R.s 			page 7


 246 007e 0B46     		mov	r3, r1
 247 0080 1748     		ldr	r0, .L13+28
 248 0082 FFF7FEFF 		bl	printf
 249              	.LVL25:
  69:User/Source/ADCAPP.c ****   printf("VSN voltage = %.2f V \r\n", adc_to_voltage(adcbuf[9]));
 250              		.loc 1 69 3 is_stmt 1 view .LVU44
 251              		.loc 1 69 39 is_stmt 0 view .LVU45
 252 0086 A08C     		ldrh	r0, [r4, #36]
 253 0088 FFF7FEFF 		bl	adc_to_voltage
 254              	.LVL26:
 255              		.loc 1 69 3 discriminator 1 view .LVU46
 256 008c FFF7FEFF 		bl	__aeabi_f2d
 257              	.LVL27:
 258 0090 0246     		mov	r2, r0
 259 0092 0B46     		mov	r3, r1
 260 0094 1348     		ldr	r0, .L13+32
 261 0096 FFF7FEFF 		bl	printf
 262              	.LVL28:
  70:User/Source/ADCAPP.c ****   printf("VGP voltage = %.2f V \r\n", adc_to_voltage(adcbuf[10]));
 263              		.loc 1 70 3 is_stmt 1 view .LVU47
 264              		.loc 1 70 39 is_stmt 0 view .LVU48
 265 009a 208D     		ldrh	r0, [r4, #40]
 266 009c FFF7FEFF 		bl	adc_to_voltage
 267              	.LVL29:
 268              		.loc 1 70 3 discriminator 1 view .LVU49
 269 00a0 FFF7FEFF 		bl	__aeabi_f2d
 270              	.LVL30:
 271 00a4 0246     		mov	r2, r0
 272 00a6 0B46     		mov	r3, r1
 273 00a8 0F48     		ldr	r0, .L13+36
 274 00aa FFF7FEFF 		bl	printf
 275              	.LVL31:
  71:User/Source/ADCAPP.c ****   printf("VSP voltage = %.2f V \r\n", adc_to_voltage(adcbuf[7]));
 276              		.loc 1 71 3 is_stmt 1 view .LVU50
 277              		.loc 1 71 39 is_stmt 0 view .LVU51
 278 00ae A08B     		ldrh	r0, [r4, #28]
 279 00b0 FFF7FEFF 		bl	adc_to_voltage
 280              	.LVL32:
 281              		.loc 1 71 3 discriminator 1 view .LVU52
 282 00b4 FFF7FEFF 		bl	__aeabi_f2d
 283              	.LVL33:
 284 00b8 0246     		mov	r2, r0
 285 00ba 0B46     		mov	r3, r1
 286 00bc 0B48     		ldr	r0, .L13+40
 287 00be FFF7FEFF 		bl	printf
 288              	.LVL34:
  72:User/Source/ADCAPP.c **** }
 289              		.loc 1 72 1 view .LVU53
 290 00c2 10BD     		pop	{r4, pc}
 291              	.L14:
 292              		.align	2
 293              	.L13:
 294 00c4 00000000 		.word	adc_dma_complete
 295 00c8 00000000 		.word	adcbuf
 296 00cc 00000000 		.word	hadc1
 297 00d0 00000000 		.word	.LC0
 298 00d4 18000000 		.word	.LC1
ARM GAS  C:\Users\Administrator\AppData\Local\Temp\ccjIMz1R.s 			page 8


 299 00d8 34000000 		.word	.LC2
 300 00dc 50000000 		.word	.LC3
 301 00e0 6C000000 		.word	.LC4
 302 00e4 84000000 		.word	.LC5
 303 00e8 9C000000 		.word	.LC6
 304 00ec B4000000 		.word	.LC7
 305              		.cfi_endproc
 306              	.LFE77:
 308              		.global	adc_dma_complete
 309              		.section	.bss.adc_dma_complete,"aw",%nobits
 312              	adc_dma_complete:
 313 0000 00       		.space	1
 314              		.global	adcbuf
 315              		.section	.bss.adcbuf,"aw",%nobits
 316              		.align	2
 319              	adcbuf:
 320 0000 00000000 		.space	44
 320      00000000 
 320      00000000 
 320      00000000 
 320      00000000 
 321              		.text
 322              	.Letext0:
 323              		.file 2 "D:/gcc-arm/14.3 rel1/arm-none-eabi/include/machine/_default_types.h"
 324              		.file 3 "D:/gcc-arm/14.3 rel1/arm-none-eabi/include/sys/_stdint.h"
 325              		.file 4 "Drivers/CMSIS/Device/ST/STM32F1xx/Include/stm32f103xg.h"
 326              		.file 5 "Drivers/CMSIS/Device/ST/STM32F1xx/Include/stm32f1xx.h"
 327              		.file 6 "Drivers/STM32F1xx_HAL_Driver/Inc/stm32f1xx_hal_def.h"
 328              		.file 7 "Drivers/STM32F1xx_HAL_Driver/Inc/stm32f1xx_hal_dma.h"
 329              		.file 8 "Drivers/STM32F1xx_HAL_Driver/Inc/stm32f1xx_hal_adc.h"
 330              		.file 9 "Core/Inc/adc.h"
 331              		.file 10 "D:/gcc-arm/14.3 rel1/arm-none-eabi/include/stdio.h"
ARM GAS  C:\Users\Administrator\AppData\Local\Temp\ccjIMz1R.s 			page 9

