ARM GAS  C:\Users\Administrator\AppData\Local\Temp\cciYESlC.s 			page 1


   1              		.cpu cortex-m3
   2              		.arch armv7-m
   3              		.fpu softvfp
   4              		.eabi_attribute 20, 1
   5              		.eabi_attribute 21, 1
   6              		.eabi_attribute 23, 3
   7              		.eabi_attribute 24, 1
   8              		.eabi_attribute 25, 1
   9              		.eabi_attribute 26, 1
  10              		.eabi_attribute 30, 1
  11              		.eabi_attribute 34, 1
  12              		.eabi_attribute 18, 4
  13              		.file	"DPPTMIIC.c"
  14              		.text
  15              	.Ltext0:
  16              		.cfi_sections	.debug_frame
  17              		.file 1 "User/Source/DPPTMIIC.c"
  18              		.section	.text.IIC_Delay_us,"ax",%progbits
  19              		.align	1
  20              		.syntax unified
  21              		.thumb
  22              		.thumb_func
  24              	IIC_Delay_us:
  25              	.LVL0:
  26              	.LFB75:
   1:User/Source/DPPTMIIC.c **** /**
   2:User/Source/DPPTMIIC.c ****  * @file     softwareiic.c
   3:User/Source/DPPTMIIC.c ****  * @brief    适用于STM32 HAL库及CUBEMX生成工程的软件模拟IIC
   4:User/Source/DPPTMIIC.c ****  * @version  V1.0.0
   5:User/Source/DPPTMIIC.c ****  * @author   Sundea
   6:User/Source/DPPTMIIC.c ****  * @date     2023/5/8
   7:User/Source/DPPTMIIC.c ****  */
   8:User/Source/DPPTMIIC.c **** #include "DPPTMIIC.h"
   9:User/Source/DPPTMIIC.c **** 
  10:User/Source/DPPTMIIC.c **** /**
  11:User/Source/DPPTMIIC.c ****  * @brief IIC延时
  12:User/Source/DPPTMIIC.c ****  * @param  无
  13:User/Source/DPPTMIIC.c ****  * @return 无
  14:User/Source/DPPTMIIC.c ****  */
  15:User/Source/DPPTMIIC.c **** static void IIC_Delay_us(uint32_t us)
  16:User/Source/DPPTMIIC.c **** {
  27              		.loc 1 16 1 view -0
  28              		.cfi_startproc
  29              		@ args = 0, pretend = 0, frame = 0
  30              		@ frame_needed = 0, uses_anonymous_args = 0
  31              		@ link register save eliminated.
  17:User/Source/DPPTMIIC.c ****     // 72MHz主频下，单条空指令约1/72μs，循环体包含减1和判断，约消耗8个指
  18:User/Source/DPPTMIIC.c ****     // 计算循环次数：us * (72MHz / 1000000) / 8 ≈ us * 9
  19:User/Source/DPPTMIIC.c ****     uint32_t i = us * 9; 
  32              		.loc 1 19 5 view .LVU1
  33              		.loc 1 19 14 is_stmt 0 view .LVU2
  34 0000 00EBC000 		add	r0, r0, r0, lsl #3
  35              	.LVL1:
  20:User/Source/DPPTMIIC.c ****     while (i--)
  36              		.loc 1 20 5 is_stmt 1 view .LVU3
  37              		.loc 1 20 11 is_stmt 0 view .LVU4
  38 0004 01E0     		b	.L2
ARM GAS  C:\Users\Administrator\AppData\Local\Temp\cciYESlC.s 			page 2


  39              	.LVL2:
  40              	.L3:
  21:User/Source/DPPTMIIC.c ****     {
  22:User/Source/DPPTMIIC.c ****        __NOP() ; // 空指令，减少编译器优化对延时的影响
  41              		.loc 1 22 8 is_stmt 1 view .LVU5
  42              		.syntax unified
  43              	@ 22 "User/Source/DPPTMIIC.c" 1
  44 0006 00BF     		nop
  45              	@ 0 "" 2
  20:User/Source/DPPTMIIC.c ****     while (i--)
  46              		.loc 1 20 13 is_stmt 0 view .LVU6
  47              		.thumb
  48              		.syntax unified
  49 0008 1846     		mov	r0, r3
  50              	.LVL3:
  51              	.L2:
  20:User/Source/DPPTMIIC.c ****     while (i--)
  52              		.loc 1 20 12 is_stmt 1 view .LVU7
  20:User/Source/DPPTMIIC.c ****     while (i--)
  53              		.loc 1 20 13 is_stmt 0 view .LVU8
  54 000a 431E     		subs	r3, r0, #1
  55              	.LVL4:
  20:User/Source/DPPTMIIC.c ****     while (i--)
  56              		.loc 1 20 12 view .LVU9
  57 000c 0028     		cmp	r0, #0
  58 000e FAD1     		bne	.L3
  23:User/Source/DPPTMIIC.c ****     }
  24:User/Source/DPPTMIIC.c **** }
  59              		.loc 1 24 1 view .LVU10
  60 0010 7047     		bx	lr
  61              		.cfi_endproc
  62              	.LFE75:
  64              		.section	.text.Soft_IIC_Output,"ax",%progbits
  65              		.align	1
  66              		.syntax unified
  67              		.thumb
  68              		.thumb_func
  70              	Soft_IIC_Output:
  71              	.LFB77:
  25:User/Source/DPPTMIIC.c **** 
  26:User/Source/DPPTMIIC.c **** /**
  27:User/Source/DPPTMIIC.c ****  * @brief IIC初始化
  28:User/Source/DPPTMIIC.c ****  * @param  无
  29:User/Source/DPPTMIIC.c ****  * @return 无
  30:User/Source/DPPTMIIC.c ****  */
  31:User/Source/DPPTMIIC.c **** void Soft_IIC_Init(void)
  32:User/Source/DPPTMIIC.c **** {
  33:User/Source/DPPTMIIC.c ****     IIC_SDA_H();
  34:User/Source/DPPTMIIC.c ****     IIC_SCL_H();
  35:User/Source/DPPTMIIC.c **** }
  36:User/Source/DPPTMIIC.c **** 
  37:User/Source/DPPTMIIC.c **** /**
  38:User/Source/DPPTMIIC.c ****  * @brief SDA引脚设置输出模式
  39:User/Source/DPPTMIIC.c ****  * @param  无
  40:User/Source/DPPTMIIC.c ****  * @return 无
  41:User/Source/DPPTMIIC.c ****  */
  42:User/Source/DPPTMIIC.c **** static void Soft_IIC_Output(void)
ARM GAS  C:\Users\Administrator\AppData\Local\Temp\cciYESlC.s 			page 3


  43:User/Source/DPPTMIIC.c **** {
  72              		.loc 1 43 1 is_stmt 1 view -0
  73              		.cfi_startproc
  74              		@ args = 0, pretend = 0, frame = 16
  75              		@ frame_needed = 0, uses_anonymous_args = 0
  76 0000 00B5     		push	{lr}
  77              	.LCFI0:
  78              		.cfi_def_cfa_offset 4
  79              		.cfi_offset 14, -4
  80 0002 85B0     		sub	sp, sp, #20
  81              	.LCFI1:
  82              		.cfi_def_cfa_offset 24
  44:User/Source/DPPTMIIC.c ****     GPIO_InitTypeDef SOFT_IIC_GPIO_STRUCT;
  83              		.loc 1 44 5 view .LVU12
  45:User/Source/DPPTMIIC.c ****     SOFT_IIC_GPIO_STRUCT.Mode = GPIO_MODE_OUTPUT_PP;
  84              		.loc 1 45 5 view .LVU13
  85              		.loc 1 45 31 is_stmt 0 view .LVU14
  86 0004 0123     		movs	r3, #1
  87 0006 0193     		str	r3, [sp, #4]
  46:User/Source/DPPTMIIC.c ****     SOFT_IIC_GPIO_STRUCT.Pin = IIC_SDA_PIN;
  88              		.loc 1 46 5 is_stmt 1 view .LVU15
  89              		.loc 1 46 30 is_stmt 0 view .LVU16
  90 0008 0423     		movs	r3, #4
  91 000a 0093     		str	r3, [sp]
  47:User/Source/DPPTMIIC.c ****     SOFT_IIC_GPIO_STRUCT.Speed = GPIO_SPEED_FREQ_HIGH;
  92              		.loc 1 47 5 is_stmt 1 view .LVU17
  93              		.loc 1 47 32 is_stmt 0 view .LVU18
  94 000c 0323     		movs	r3, #3
  95 000e 0393     		str	r3, [sp, #12]
  48:User/Source/DPPTMIIC.c **** 
  49:User/Source/DPPTMIIC.c ****     HAL_GPIO_Init(IIC_SDA_PORT, &SOFT_IIC_GPIO_STRUCT);
  96              		.loc 1 49 5 is_stmt 1 view .LVU19
  97 0010 6946     		mov	r1, sp
  98 0012 0348     		ldr	r0, .L6
  99 0014 FFF7FEFF 		bl	HAL_GPIO_Init
 100              	.LVL5:
  50:User/Source/DPPTMIIC.c **** }
 101              		.loc 1 50 1 is_stmt 0 view .LVU20
 102 0018 05B0     		add	sp, sp, #20
 103              	.LCFI2:
 104              		.cfi_def_cfa_offset 4
 105              		@ sp needed
 106 001a 5DF804FB 		ldr	pc, [sp], #4
 107              	.L7:
 108 001e 00BF     		.align	2
 109              	.L6:
 110 0020 00100140 		.word	1073811456
 111              		.cfi_endproc
 112              	.LFE77:
 114              		.section	.text.Soft_IIC_Input,"ax",%progbits
 115              		.align	1
 116              		.syntax unified
 117              		.thumb
 118              		.thumb_func
 120              	Soft_IIC_Input:
 121              	.LFB78:
  51:User/Source/DPPTMIIC.c **** 
ARM GAS  C:\Users\Administrator\AppData\Local\Temp\cciYESlC.s 			page 4


  52:User/Source/DPPTMIIC.c **** /**
  53:User/Source/DPPTMIIC.c ****  * @brief SDA引脚设置输入模式
  54:User/Source/DPPTMIIC.c ****  * @param  无
  55:User/Source/DPPTMIIC.c ****  * @return 无
  56:User/Source/DPPTMIIC.c ****  */
  57:User/Source/DPPTMIIC.c **** static void Soft_IIC_Input(void)
  58:User/Source/DPPTMIIC.c **** {
 122              		.loc 1 58 1 is_stmt 1 view -0
 123              		.cfi_startproc
 124              		@ args = 0, pretend = 0, frame = 16
 125              		@ frame_needed = 0, uses_anonymous_args = 0
 126 0000 00B5     		push	{lr}
 127              	.LCFI3:
 128              		.cfi_def_cfa_offset 4
 129              		.cfi_offset 14, -4
 130 0002 85B0     		sub	sp, sp, #20
 131              	.LCFI4:
 132              		.cfi_def_cfa_offset 24
  59:User/Source/DPPTMIIC.c ****     GPIO_InitTypeDef SOFT_IIC_GPIO_STRUCT;
 133              		.loc 1 59 5 view .LVU22
  60:User/Source/DPPTMIIC.c ****     SOFT_IIC_GPIO_STRUCT.Mode = GPIO_MODE_INPUT;
 134              		.loc 1 60 5 view .LVU23
 135              		.loc 1 60 31 is_stmt 0 view .LVU24
 136 0004 0023     		movs	r3, #0
 137 0006 0193     		str	r3, [sp, #4]
  61:User/Source/DPPTMIIC.c ****     SOFT_IIC_GPIO_STRUCT.Pin = IIC_SDA_PIN;
 138              		.loc 1 61 5 is_stmt 1 view .LVU25
 139              		.loc 1 61 30 is_stmt 0 view .LVU26
 140 0008 0423     		movs	r3, #4
 141 000a 0093     		str	r3, [sp]
  62:User/Source/DPPTMIIC.c ****     SOFT_IIC_GPIO_STRUCT.Speed = GPIO_SPEED_FREQ_HIGH;
 142              		.loc 1 62 5 is_stmt 1 view .LVU27
 143              		.loc 1 62 32 is_stmt 0 view .LVU28
 144 000c 0323     		movs	r3, #3
 145 000e 0393     		str	r3, [sp, #12]
  63:User/Source/DPPTMIIC.c **** 
  64:User/Source/DPPTMIIC.c ****     HAL_GPIO_Init(IIC_SDA_PORT, &SOFT_IIC_GPIO_STRUCT);
 146              		.loc 1 64 5 is_stmt 1 view .LVU29
 147 0010 6946     		mov	r1, sp
 148 0012 0348     		ldr	r0, .L10
 149 0014 FFF7FEFF 		bl	HAL_GPIO_Init
 150              	.LVL6:
  65:User/Source/DPPTMIIC.c **** }
 151              		.loc 1 65 1 is_stmt 0 view .LVU30
 152 0018 05B0     		add	sp, sp, #20
 153              	.LCFI5:
 154              		.cfi_def_cfa_offset 4
 155              		@ sp needed
 156 001a 5DF804FB 		ldr	pc, [sp], #4
 157              	.L11:
 158 001e 00BF     		.align	2
 159              	.L10:
 160 0020 00100140 		.word	1073811456
 161              		.cfi_endproc
 162              	.LFE78:
 164              		.section	.text.Soft_IIC_Init,"ax",%progbits
 165              		.align	1
ARM GAS  C:\Users\Administrator\AppData\Local\Temp\cciYESlC.s 			page 5


 166              		.global	Soft_IIC_Init
 167              		.syntax unified
 168              		.thumb
 169              		.thumb_func
 171              	Soft_IIC_Init:
 172              	.LFB76:
  32:User/Source/DPPTMIIC.c ****     IIC_SDA_H();
 173              		.loc 1 32 1 is_stmt 1 view -0
 174              		.cfi_startproc
 175              		@ args = 0, pretend = 0, frame = 0
 176              		@ frame_needed = 0, uses_anonymous_args = 0
 177 0000 10B5     		push	{r4, lr}
 178              	.LCFI6:
 179              		.cfi_def_cfa_offset 8
 180              		.cfi_offset 4, -8
 181              		.cfi_offset 14, -4
  33:User/Source/DPPTMIIC.c ****     IIC_SCL_H();
 182              		.loc 1 33 5 view .LVU32
 183 0002 064C     		ldr	r4, .L14
 184 0004 0122     		movs	r2, #1
 185 0006 0421     		movs	r1, #4
 186 0008 2046     		mov	r0, r4
 187 000a FFF7FEFF 		bl	HAL_GPIO_WritePin
 188              	.LVL7:
  34:User/Source/DPPTMIIC.c **** }
 189              		.loc 1 34 5 view .LVU33
 190 000e 0122     		movs	r2, #1
 191 0010 0821     		movs	r1, #8
 192 0012 2046     		mov	r0, r4
 193 0014 FFF7FEFF 		bl	HAL_GPIO_WritePin
 194              	.LVL8:
  35:User/Source/DPPTMIIC.c **** 
 195              		.loc 1 35 1 is_stmt 0 view .LVU34
 196 0018 10BD     		pop	{r4, pc}
 197              	.L15:
 198 001a 00BF     		.align	2
 199              	.L14:
 200 001c 00100140 		.word	1073811456
 201              		.cfi_endproc
 202              	.LFE76:
 204              		.section	.text.Soft_IIC_Start,"ax",%progbits
 205              		.align	1
 206              		.global	Soft_IIC_Start
 207              		.syntax unified
 208              		.thumb
 209              		.thumb_func
 211              	Soft_IIC_Start:
 212              	.LFB79:
  66:User/Source/DPPTMIIC.c **** 
  67:User/Source/DPPTMIIC.c **** /**
  68:User/Source/DPPTMIIC.c ****  * @brief IIC起始信号
  69:User/Source/DPPTMIIC.c ****  * @param  无
  70:User/Source/DPPTMIIC.c ****  * @return 无
  71:User/Source/DPPTMIIC.c ****  */
  72:User/Source/DPPTMIIC.c **** void Soft_IIC_Start(void)
  73:User/Source/DPPTMIIC.c **** {
 213              		.loc 1 73 1 is_stmt 1 view -0
ARM GAS  C:\Users\Administrator\AppData\Local\Temp\cciYESlC.s 			page 6


 214              		.cfi_startproc
 215              		@ args = 0, pretend = 0, frame = 0
 216              		@ frame_needed = 0, uses_anonymous_args = 0
 217 0000 10B5     		push	{r4, lr}
 218              	.LCFI7:
 219              		.cfi_def_cfa_offset 8
 220              		.cfi_offset 4, -8
 221              		.cfi_offset 14, -4
  74:User/Source/DPPTMIIC.c ****     Soft_IIC_Output();
 222              		.loc 1 74 5 view .LVU36
 223 0002 FFF7FEFF 		bl	Soft_IIC_Output
 224              	.LVL9:
  75:User/Source/DPPTMIIC.c ****     // IIC_SCL_L();
  76:User/Source/DPPTMIIC.c ****     // IIC_SDA_H();
  77:User/Source/DPPTMIIC.c ****     // IIC_SCL_H();
  78:User/Source/DPPTMIIC.c ****     // IIC_Delay(IIC_DELAY_TIME);
  79:User/Source/DPPTMIIC.c ****     IIC_SDA_L();
 225              		.loc 1 79 5 view .LVU37
 226 0006 074C     		ldr	r4, .L18
 227 0008 0022     		movs	r2, #0
 228 000a 0421     		movs	r1, #4
 229 000c 2046     		mov	r0, r4
 230 000e FFF7FEFF 		bl	HAL_GPIO_WritePin
 231              	.LVL10:
  80:User/Source/DPPTMIIC.c ****     IIC_Delay_us(IIC_DELAY_TIME);
 232              		.loc 1 80 5 view .LVU38
 233 0012 0120     		movs	r0, #1
 234 0014 FFF7FEFF 		bl	IIC_Delay_us
 235              	.LVL11:
  81:User/Source/DPPTMIIC.c ****     IIC_SCL_L();
 236              		.loc 1 81 5 view .LVU39
 237 0018 0022     		movs	r2, #0
 238 001a 0821     		movs	r1, #8
 239 001c 2046     		mov	r0, r4
 240 001e FFF7FEFF 		bl	HAL_GPIO_WritePin
 241              	.LVL12:
  82:User/Source/DPPTMIIC.c **** }
 242              		.loc 1 82 1 is_stmt 0 view .LVU40
 243 0022 10BD     		pop	{r4, pc}
 244              	.L19:
 245              		.align	2
 246              	.L18:
 247 0024 00100140 		.word	1073811456
 248              		.cfi_endproc
 249              	.LFE79:
 251              		.section	.text.Soft_IIC_Stop,"ax",%progbits
 252              		.align	1
 253              		.global	Soft_IIC_Stop
 254              		.syntax unified
 255              		.thumb
 256              		.thumb_func
 258              	Soft_IIC_Stop:
 259              	.LFB80:
  83:User/Source/DPPTMIIC.c **** 
  84:User/Source/DPPTMIIC.c **** /**
  85:User/Source/DPPTMIIC.c ****  * @brief IIC停止信号
  86:User/Source/DPPTMIIC.c ****  * @param  无
ARM GAS  C:\Users\Administrator\AppData\Local\Temp\cciYESlC.s 			page 7


  87:User/Source/DPPTMIIC.c ****  * @return 无
  88:User/Source/DPPTMIIC.c ****  */
  89:User/Source/DPPTMIIC.c **** void Soft_IIC_Stop(void)
  90:User/Source/DPPTMIIC.c **** {
 260              		.loc 1 90 1 is_stmt 1 view -0
 261              		.cfi_startproc
 262              		@ args = 0, pretend = 0, frame = 0
 263              		@ frame_needed = 0, uses_anonymous_args = 0
 264 0000 10B5     		push	{r4, lr}
 265              	.LCFI8:
 266              		.cfi_def_cfa_offset 8
 267              		.cfi_offset 4, -8
 268              		.cfi_offset 14, -4
  91:User/Source/DPPTMIIC.c ****     Soft_IIC_Output();
 269              		.loc 1 91 5 view .LVU42
 270 0002 FFF7FEFF 		bl	Soft_IIC_Output
 271              	.LVL13:
  92:User/Source/DPPTMIIC.c ****     // IIC_SCL_L();
  93:User/Source/DPPTMIIC.c ****     // IIC_SDA_L();
  94:User/Source/DPPTMIIC.c ****     IIC_SCL_H();
 272              		.loc 1 94 5 view .LVU43
 273 0006 094C     		ldr	r4, .L22
 274 0008 0122     		movs	r2, #1
 275 000a 0821     		movs	r1, #8
 276 000c 2046     		mov	r0, r4
 277 000e FFF7FEFF 		bl	HAL_GPIO_WritePin
 278              	.LVL14:
  95:User/Source/DPPTMIIC.c ****     IIC_Delay_us(IIC_DELAY_TIME);
 279              		.loc 1 95 5 view .LVU44
 280 0012 0120     		movs	r0, #1
 281 0014 FFF7FEFF 		bl	IIC_Delay_us
 282              	.LVL15:
  96:User/Source/DPPTMIIC.c ****     IIC_SDA_H();
 283              		.loc 1 96 5 view .LVU45
 284 0018 0122     		movs	r2, #1
 285 001a 0421     		movs	r1, #4
 286 001c 2046     		mov	r0, r4
 287 001e FFF7FEFF 		bl	HAL_GPIO_WritePin
 288              	.LVL16:
  97:User/Source/DPPTMIIC.c ****     IIC_Delay_us(IIC_DELAY_TIME);
 289              		.loc 1 97 5 view .LVU46
 290 0022 0120     		movs	r0, #1
 291 0024 FFF7FEFF 		bl	IIC_Delay_us
 292              	.LVL17:
  98:User/Source/DPPTMIIC.c **** }
 293              		.loc 1 98 1 is_stmt 0 view .LVU47
 294 0028 10BD     		pop	{r4, pc}
 295              	.L23:
 296 002a 00BF     		.align	2
 297              	.L22:
 298 002c 00100140 		.word	1073811456
 299              		.cfi_endproc
 300              	.LFE80:
 302              		.section	.text.Soft_IIC_ACK,"ax",%progbits
 303              		.align	1
 304              		.global	Soft_IIC_ACK
 305              		.syntax unified
ARM GAS  C:\Users\Administrator\AppData\Local\Temp\cciYESlC.s 			page 8


 306              		.thumb
 307              		.thumb_func
 309              	Soft_IIC_ACK:
 310              	.LFB81:
  99:User/Source/DPPTMIIC.c **** 
 100:User/Source/DPPTMIIC.c **** /**
 101:User/Source/DPPTMIIC.c ****  * @brief IIC应答信号
 102:User/Source/DPPTMIIC.c ****  * @param  无
 103:User/Source/DPPTMIIC.c ****  * @return 无
 104:User/Source/DPPTMIIC.c ****  */
 105:User/Source/DPPTMIIC.c **** void Soft_IIC_ACK(void)
 106:User/Source/DPPTMIIC.c **** {
 311              		.loc 1 106 1 is_stmt 1 view -0
 312              		.cfi_startproc
 313              		@ args = 0, pretend = 0, frame = 0
 314              		@ frame_needed = 0, uses_anonymous_args = 0
 315 0000 10B5     		push	{r4, lr}
 316              	.LCFI9:
 317              		.cfi_def_cfa_offset 8
 318              		.cfi_offset 4, -8
 319              		.cfi_offset 14, -4
 107:User/Source/DPPTMIIC.c ****     Soft_IIC_Output();
 320              		.loc 1 107 5 view .LVU49
 321 0002 FFF7FEFF 		bl	Soft_IIC_Output
 322              	.LVL18:
 108:User/Source/DPPTMIIC.c ****     IIC_SCL_L();
 323              		.loc 1 108 5 view .LVU50
 324 0006 0E4C     		ldr	r4, .L26
 325 0008 0022     		movs	r2, #0
 326 000a 0821     		movs	r1, #8
 327 000c 2046     		mov	r0, r4
 328 000e FFF7FEFF 		bl	HAL_GPIO_WritePin
 329              	.LVL19:
 109:User/Source/DPPTMIIC.c ****     IIC_SDA_L();
 330              		.loc 1 109 5 view .LVU51
 331 0012 0022     		movs	r2, #0
 332 0014 0421     		movs	r1, #4
 333 0016 2046     		mov	r0, r4
 334 0018 FFF7FEFF 		bl	HAL_GPIO_WritePin
 335              	.LVL20:
 110:User/Source/DPPTMIIC.c ****     IIC_Delay_us(IIC_DELAY_TIME);
 336              		.loc 1 110 5 view .LVU52
 337 001c 0120     		movs	r0, #1
 338 001e FFF7FEFF 		bl	IIC_Delay_us
 339              	.LVL21:
 111:User/Source/DPPTMIIC.c ****     IIC_SCL_H();
 340              		.loc 1 111 5 view .LVU53
 341 0022 0122     		movs	r2, #1
 342 0024 0821     		movs	r1, #8
 343 0026 2046     		mov	r0, r4
 344 0028 FFF7FEFF 		bl	HAL_GPIO_WritePin
 345              	.LVL22:
 112:User/Source/DPPTMIIC.c ****     IIC_Delay_us(IIC_DELAY_TIME);
 346              		.loc 1 112 5 view .LVU54
 347 002c 0120     		movs	r0, #1
 348 002e FFF7FEFF 		bl	IIC_Delay_us
 349              	.LVL23:
ARM GAS  C:\Users\Administrator\AppData\Local\Temp\cciYESlC.s 			page 9


 113:User/Source/DPPTMIIC.c ****     IIC_SCL_L();
 350              		.loc 1 113 5 view .LVU55
 351 0032 0022     		movs	r2, #0
 352 0034 0821     		movs	r1, #8
 353 0036 2046     		mov	r0, r4
 354 0038 FFF7FEFF 		bl	HAL_GPIO_WritePin
 355              	.LVL24:
 114:User/Source/DPPTMIIC.c **** }
 356              		.loc 1 114 1 is_stmt 0 view .LVU56
 357 003c 10BD     		pop	{r4, pc}
 358              	.L27:
 359 003e 00BF     		.align	2
 360              	.L26:
 361 0040 00100140 		.word	1073811456
 362              		.cfi_endproc
 363              	.LFE81:
 365              		.section	.text.Soft_IIC_NACK,"ax",%progbits
 366              		.align	1
 367              		.global	Soft_IIC_NACK
 368              		.syntax unified
 369              		.thumb
 370              		.thumb_func
 372              	Soft_IIC_NACK:
 373              	.LFB82:
 115:User/Source/DPPTMIIC.c **** 
 116:User/Source/DPPTMIIC.c **** /**
 117:User/Source/DPPTMIIC.c ****  * @brief IIC无应答信号
 118:User/Source/DPPTMIIC.c ****  * @param  无
 119:User/Source/DPPTMIIC.c ****  * @return 无
 120:User/Source/DPPTMIIC.c ****  */
 121:User/Source/DPPTMIIC.c **** void Soft_IIC_NACK(void)
 122:User/Source/DPPTMIIC.c **** {
 374              		.loc 1 122 1 is_stmt 1 view -0
 375              		.cfi_startproc
 376              		@ args = 0, pretend = 0, frame = 0
 377              		@ frame_needed = 0, uses_anonymous_args = 0
 378 0000 10B5     		push	{r4, lr}
 379              	.LCFI10:
 380              		.cfi_def_cfa_offset 8
 381              		.cfi_offset 4, -8
 382              		.cfi_offset 14, -4
 123:User/Source/DPPTMIIC.c ****     Soft_IIC_Output();
 383              		.loc 1 123 5 view .LVU58
 384 0002 FFF7FEFF 		bl	Soft_IIC_Output
 385              	.LVL25:
 124:User/Source/DPPTMIIC.c ****     IIC_SCL_L();
 386              		.loc 1 124 5 view .LVU59
 387 0006 0B4C     		ldr	r4, .L30
 388 0008 0022     		movs	r2, #0
 389 000a 0821     		movs	r1, #8
 390 000c 2046     		mov	r0, r4
 391 000e FFF7FEFF 		bl	HAL_GPIO_WritePin
 392              	.LVL26:
 125:User/Source/DPPTMIIC.c ****     IIC_SDA_H();
 393              		.loc 1 125 5 view .LVU60
 394 0012 0122     		movs	r2, #1
 395 0014 0421     		movs	r1, #4
ARM GAS  C:\Users\Administrator\AppData\Local\Temp\cciYESlC.s 			page 10


 396 0016 2046     		mov	r0, r4
 397 0018 FFF7FEFF 		bl	HAL_GPIO_WritePin
 398              	.LVL27:
 126:User/Source/DPPTMIIC.c ****     IIC_Delay_us(IIC_DELAY_TIME);
 399              		.loc 1 126 5 view .LVU61
 400 001c 0120     		movs	r0, #1
 401 001e FFF7FEFF 		bl	IIC_Delay_us
 402              	.LVL28:
 127:User/Source/DPPTMIIC.c ****     IIC_SCL_H();
 403              		.loc 1 127 5 view .LVU62
 404 0022 0122     		movs	r2, #1
 405 0024 0821     		movs	r1, #8
 406 0026 2046     		mov	r0, r4
 407 0028 FFF7FEFF 		bl	HAL_GPIO_WritePin
 408              	.LVL29:
 128:User/Source/DPPTMIIC.c ****     IIC_Delay_us(IIC_DELAY_TIME);
 409              		.loc 1 128 5 view .LVU63
 410 002c 0120     		movs	r0, #1
 411 002e FFF7FEFF 		bl	IIC_Delay_us
 412              	.LVL30:
 129:User/Source/DPPTMIIC.c **** }
 413              		.loc 1 129 1 is_stmt 0 view .LVU64
 414 0032 10BD     		pop	{r4, pc}
 415              	.L31:
 416              		.align	2
 417              	.L30:
 418 0034 00100140 		.word	1073811456
 419              		.cfi_endproc
 420              	.LFE82:
 422              		.section	.text.Soft_IIC_Wait_ACK,"ax",%progbits
 423              		.align	1
 424              		.global	Soft_IIC_Wait_ACK
 425              		.syntax unified
 426              		.thumb
 427              		.thumb_func
 429              	Soft_IIC_Wait_ACK:
 430              	.LFB83:
 130:User/Source/DPPTMIIC.c **** 
 131:User/Source/DPPTMIIC.c **** /**
 132:User/Source/DPPTMIIC.c ****  * @brief IIC等待应答信号
 133:User/Source/DPPTMIIC.c ****  * @param  无
 134:User/Source/DPPTMIIC.c ****  * @return 0无应答  1有应答
 135:User/Source/DPPTMIIC.c ****  */
 136:User/Source/DPPTMIIC.c **** uint8_t Soft_IIC_Wait_ACK(void)
 137:User/Source/DPPTMIIC.c **** {
 431              		.loc 1 137 1 is_stmt 1 view -0
 432              		.cfi_startproc
 433              		@ args = 0, pretend = 0, frame = 0
 434              		@ frame_needed = 0, uses_anonymous_args = 0
 435 0000 10B5     		push	{r4, lr}
 436              	.LCFI11:
 437              		.cfi_def_cfa_offset 8
 438              		.cfi_offset 4, -8
 439              		.cfi_offset 14, -4
 138:User/Source/DPPTMIIC.c ****     static uint8_t wait;
 440              		.loc 1 138 5 view .LVU66
 139:User/Source/DPPTMIIC.c ****     Soft_IIC_Output();
ARM GAS  C:\Users\Administrator\AppData\Local\Temp\cciYESlC.s 			page 11


 441              		.loc 1 139 5 view .LVU67
 442 0002 FFF7FEFF 		bl	Soft_IIC_Output
 443              	.LVL31:
 140:User/Source/DPPTMIIC.c ****     IIC_SDA_H();
 444              		.loc 1 140 5 view .LVU68
 445 0006 154C     		ldr	r4, .L38
 446 0008 0122     		movs	r2, #1
 447 000a 0421     		movs	r1, #4
 448 000c 2046     		mov	r0, r4
 449 000e FFF7FEFF 		bl	HAL_GPIO_WritePin
 450              	.LVL32:
 141:User/Source/DPPTMIIC.c ****     Soft_IIC_Input();
 451              		.loc 1 141 5 view .LVU69
 452 0012 FFF7FEFF 		bl	Soft_IIC_Input
 453              	.LVL33:
 142:User/Source/DPPTMIIC.c ****     IIC_SCL_H();
 454              		.loc 1 142 5 view .LVU70
 455 0016 0122     		movs	r2, #1
 456 0018 0821     		movs	r1, #8
 457 001a 2046     		mov	r0, r4
 458 001c FFF7FEFF 		bl	HAL_GPIO_WritePin
 459              	.LVL34:
 143:User/Source/DPPTMIIC.c ****     IIC_Delay_us(IIC_DELAY_TIME);
 460              		.loc 1 143 5 view .LVU71
 461 0020 0120     		movs	r0, #1
 462 0022 FFF7FEFF 		bl	IIC_Delay_us
 463              	.LVL35:
 144:User/Source/DPPTMIIC.c ****     while (HAL_GPIO_ReadPin(IIC_SDA_PORT, IIC_SDA_PIN))
 464              		.loc 1 144 5 view .LVU72
 465              	.L33:
 466              		.loc 1 144 12 view .LVU73
 467 0026 0421     		movs	r1, #4
 468 0028 0C48     		ldr	r0, .L38
 469 002a FFF7FEFF 		bl	HAL_GPIO_ReadPin
 470              	.LVL36:
 471              		.loc 1 144 12 is_stmt 0 discriminator 1 view .LVU74
 472 002e 50B1     		cbz	r0, .L37
 145:User/Source/DPPTMIIC.c ****     {
 146:User/Source/DPPTMIIC.c ****         wait++;
 473              		.loc 1 146 9 is_stmt 1 view .LVU75
 474              		.loc 1 146 13 is_stmt 0 view .LVU76
 475 0030 0B4A     		ldr	r2, .L38+4
 476 0032 1378     		ldrb	r3, [r2]	@ zero_extendqisi2
 477 0034 0133     		adds	r3, r3, #1
 478 0036 DBB2     		uxtb	r3, r3
 479 0038 1370     		strb	r3, [r2]
 147:User/Source/DPPTMIIC.c ****         if (wait > 200)
 480              		.loc 1 147 9 is_stmt 1 view .LVU77
 481              		.loc 1 147 12 is_stmt 0 view .LVU78
 482 003a C82B     		cmp	r3, #200
 483 003c F3D9     		bls	.L33
 148:User/Source/DPPTMIIC.c ****         {
 149:User/Source/DPPTMIIC.c ****             Soft_IIC_Stop();
 484              		.loc 1 149 13 is_stmt 1 view .LVU79
 485 003e FFF7FEFF 		bl	Soft_IIC_Stop
 486              	.LVL37:
 150:User/Source/DPPTMIIC.c ****             return 0;
ARM GAS  C:\Users\Administrator\AppData\Local\Temp\cciYESlC.s 			page 12


 487              		.loc 1 150 13 view .LVU80
 488              		.loc 1 150 20 is_stmt 0 view .LVU81
 489 0042 0020     		movs	r0, #0
 490 0044 08E0     		b	.L34
 491              	.L37:
 151:User/Source/DPPTMIIC.c ****         }
 152:User/Source/DPPTMIIC.c ****     }
 153:User/Source/DPPTMIIC.c ****     IIC_SCL_L();
 492              		.loc 1 153 5 is_stmt 1 view .LVU82
 493 0046 0022     		movs	r2, #0
 494 0048 0821     		movs	r1, #8
 495 004a 00F18040 		add	r0, r0, #1073741824
 496 004e 00F58830 		add	r0, r0, #69632
 497 0052 FFF7FEFF 		bl	HAL_GPIO_WritePin
 498              	.LVL38:
 154:User/Source/DPPTMIIC.c ****     return 1;
 499              		.loc 1 154 5 view .LVU83
 500              		.loc 1 154 12 is_stmt 0 view .LVU84
 501 0056 0120     		movs	r0, #1
 502              	.L34:
 155:User/Source/DPPTMIIC.c **** }
 503              		.loc 1 155 1 view .LVU85
 504 0058 10BD     		pop	{r4, pc}
 505              	.L39:
 506 005a 00BF     		.align	2
 507              	.L38:
 508 005c 00100140 		.word	1073811456
 509 0060 00000000 		.word	wait.0
 510              		.cfi_endproc
 511              	.LFE83:
 513              		.section	.text.Soft_IIC_Write_High,"ax",%progbits
 514              		.align	1
 515              		.global	Soft_IIC_Write_High
 516              		.syntax unified
 517              		.thumb
 518              		.thumb_func
 520              	Soft_IIC_Write_High:
 521              	.LFB84:
 156:User/Source/DPPTMIIC.c **** 
 157:User/Source/DPPTMIIC.c **** /**
 158:User/Source/DPPTMIIC.c ****  * @brief IIC写数据1
 159:User/Source/DPPTMIIC.c ****  * @param  无
 160:User/Source/DPPTMIIC.c ****  * @return 无
 161:User/Source/DPPTMIIC.c ****  */
 162:User/Source/DPPTMIIC.c **** void Soft_IIC_Write_High(void)
 163:User/Source/DPPTMIIC.c **** {
 522              		.loc 1 163 1 is_stmt 1 view -0
 523              		.cfi_startproc
 524              		@ args = 0, pretend = 0, frame = 0
 525              		@ frame_needed = 0, uses_anonymous_args = 0
 526 0000 10B5     		push	{r4, lr}
 527              	.LCFI12:
 528              		.cfi_def_cfa_offset 8
 529              		.cfi_offset 4, -8
 530              		.cfi_offset 14, -4
 164:User/Source/DPPTMIIC.c ****     IIC_SCL_L();
 531              		.loc 1 164 5 view .LVU87
ARM GAS  C:\Users\Administrator\AppData\Local\Temp\cciYESlC.s 			page 13


 532 0002 0E4C     		ldr	r4, .L42
 533 0004 0022     		movs	r2, #0
 534 0006 0821     		movs	r1, #8
 535 0008 2046     		mov	r0, r4
 536 000a FFF7FEFF 		bl	HAL_GPIO_WritePin
 537              	.LVL39:
 165:User/Source/DPPTMIIC.c ****     IIC_SDA_H();
 538              		.loc 1 165 5 view .LVU88
 539 000e 0122     		movs	r2, #1
 540 0010 0421     		movs	r1, #4
 541 0012 2046     		mov	r0, r4
 542 0014 FFF7FEFF 		bl	HAL_GPIO_WritePin
 543              	.LVL40:
 166:User/Source/DPPTMIIC.c ****     IIC_Delay_us(IIC_DELAY_TIME);
 544              		.loc 1 166 5 view .LVU89
 545 0018 0120     		movs	r0, #1
 546 001a FFF7FEFF 		bl	IIC_Delay_us
 547              	.LVL41:
 167:User/Source/DPPTMIIC.c ****     IIC_SCL_H();
 548              		.loc 1 167 5 view .LVU90
 549 001e 0122     		movs	r2, #1
 550 0020 0821     		movs	r1, #8
 551 0022 2046     		mov	r0, r4
 552 0024 FFF7FEFF 		bl	HAL_GPIO_WritePin
 553              	.LVL42:
 168:User/Source/DPPTMIIC.c ****     IIC_Delay_us(IIC_DELAY_TIME);
 554              		.loc 1 168 5 view .LVU91
 555 0028 0120     		movs	r0, #1
 556 002a FFF7FEFF 		bl	IIC_Delay_us
 557              	.LVL43:
 169:User/Source/DPPTMIIC.c ****     IIC_SCL_L();
 558              		.loc 1 169 5 view .LVU92
 559 002e 0022     		movs	r2, #0
 560 0030 0821     		movs	r1, #8
 561 0032 2046     		mov	r0, r4
 562 0034 FFF7FEFF 		bl	HAL_GPIO_WritePin
 563              	.LVL44:
 170:User/Source/DPPTMIIC.c **** }
 564              		.loc 1 170 1 is_stmt 0 view .LVU93
 565 0038 10BD     		pop	{r4, pc}
 566              	.L43:
 567 003a 00BF     		.align	2
 568              	.L42:
 569 003c 00100140 		.word	1073811456
 570              		.cfi_endproc
 571              	.LFE84:
 573              		.section	.text.Soft_IIC_Write_Low,"ax",%progbits
 574              		.align	1
 575              		.global	Soft_IIC_Write_Low
 576              		.syntax unified
 577              		.thumb
 578              		.thumb_func
 580              	Soft_IIC_Write_Low:
 581              	.LFB85:
 171:User/Source/DPPTMIIC.c **** 
 172:User/Source/DPPTMIIC.c **** /**
 173:User/Source/DPPTMIIC.c ****  * @brief IIC写数据0
ARM GAS  C:\Users\Administrator\AppData\Local\Temp\cciYESlC.s 			page 14


 174:User/Source/DPPTMIIC.c ****  * @param  无
 175:User/Source/DPPTMIIC.c ****  * @return 无
 176:User/Source/DPPTMIIC.c ****  */
 177:User/Source/DPPTMIIC.c **** void Soft_IIC_Write_Low(void)
 178:User/Source/DPPTMIIC.c **** {
 582              		.loc 1 178 1 is_stmt 1 view -0
 583              		.cfi_startproc
 584              		@ args = 0, pretend = 0, frame = 0
 585              		@ frame_needed = 0, uses_anonymous_args = 0
 586 0000 10B5     		push	{r4, lr}
 587              	.LCFI13:
 588              		.cfi_def_cfa_offset 8
 589              		.cfi_offset 4, -8
 590              		.cfi_offset 14, -4
 179:User/Source/DPPTMIIC.c ****     IIC_SCL_L();
 591              		.loc 1 179 5 view .LVU95
 592 0002 0E4C     		ldr	r4, .L46
 593 0004 0022     		movs	r2, #0
 594 0006 0821     		movs	r1, #8
 595 0008 2046     		mov	r0, r4
 596 000a FFF7FEFF 		bl	HAL_GPIO_WritePin
 597              	.LVL45:
 180:User/Source/DPPTMIIC.c ****     IIC_SDA_L();
 598              		.loc 1 180 5 view .LVU96
 599 000e 0022     		movs	r2, #0
 600 0010 0421     		movs	r1, #4
 601 0012 2046     		mov	r0, r4
 602 0014 FFF7FEFF 		bl	HAL_GPIO_WritePin
 603              	.LVL46:
 181:User/Source/DPPTMIIC.c ****     IIC_Delay_us(IIC_DELAY_TIME);
 604              		.loc 1 181 5 view .LVU97
 605 0018 0120     		movs	r0, #1
 606 001a FFF7FEFF 		bl	IIC_Delay_us
 607              	.LVL47:
 182:User/Source/DPPTMIIC.c ****     IIC_SCL_H();
 608              		.loc 1 182 5 view .LVU98
 609 001e 0122     		movs	r2, #1
 610 0020 0821     		movs	r1, #8
 611 0022 2046     		mov	r0, r4
 612 0024 FFF7FEFF 		bl	HAL_GPIO_WritePin
 613              	.LVL48:
 183:User/Source/DPPTMIIC.c ****     IIC_Delay_us(IIC_DELAY_TIME);
 614              		.loc 1 183 5 view .LVU99
 615 0028 0120     		movs	r0, #1
 616 002a FFF7FEFF 		bl	IIC_Delay_us
 617              	.LVL49:
 184:User/Source/DPPTMIIC.c ****     IIC_SCL_L();
 618              		.loc 1 184 5 view .LVU100
 619 002e 0022     		movs	r2, #0
 620 0030 0821     		movs	r1, #8
 621 0032 2046     		mov	r0, r4
 622 0034 FFF7FEFF 		bl	HAL_GPIO_WritePin
 623              	.LVL50:
 185:User/Source/DPPTMIIC.c **** }
 624              		.loc 1 185 1 is_stmt 0 view .LVU101
 625 0038 10BD     		pop	{r4, pc}
 626              	.L47:
ARM GAS  C:\Users\Administrator\AppData\Local\Temp\cciYESlC.s 			page 15


 627 003a 00BF     		.align	2
 628              	.L46:
 629 003c 00100140 		.word	1073811456
 630              		.cfi_endproc
 631              	.LFE85:
 633              		.section	.text.Soft_IIC_Write_Byte,"ax",%progbits
 634              		.align	1
 635              		.global	Soft_IIC_Write_Byte
 636              		.syntax unified
 637              		.thumb
 638              		.thumb_func
 640              	Soft_IIC_Write_Byte:
 641              	.LVL51:
 642              	.LFB86:
 186:User/Source/DPPTMIIC.c **** 
 187:User/Source/DPPTMIIC.c **** /**
 188:User/Source/DPPTMIIC.c ****  * @brief IIC写入单个数据
 189:User/Source/DPPTMIIC.c ****  * @param  无
 190:User/Source/DPPTMIIC.c ****  * @return 应答信号, 0无应答 1有应答
 191:User/Source/DPPTMIIC.c ****  */
 192:User/Source/DPPTMIIC.c **** uint8_t Soft_IIC_Write_Byte(uint8_t Byte)
 193:User/Source/DPPTMIIC.c **** {
 643              		.loc 1 193 1 is_stmt 1 view -0
 644              		.cfi_startproc
 645              		@ args = 0, pretend = 0, frame = 0
 646              		@ frame_needed = 0, uses_anonymous_args = 0
 647              		.loc 1 193 1 is_stmt 0 view .LVU103
 648 0000 38B5     		push	{r3, r4, r5, lr}
 649              	.LCFI14:
 650              		.cfi_def_cfa_offset 16
 651              		.cfi_offset 3, -16
 652              		.cfi_offset 4, -12
 653              		.cfi_offset 5, -8
 654              		.cfi_offset 14, -4
 655 0002 0546     		mov	r5, r0
 194:User/Source/DPPTMIIC.c ****     uint8_t i;
 656              		.loc 1 194 5 is_stmt 1 view .LVU104
 195:User/Source/DPPTMIIC.c ****     Soft_IIC_Output();
 657              		.loc 1 195 5 view .LVU105
 658 0004 FFF7FEFF 		bl	Soft_IIC_Output
 659              	.LVL52:
 196:User/Source/DPPTMIIC.c ****     for (i = 0x80; i != 0; i >>= 1)
 660              		.loc 1 196 5 view .LVU106
 661              		.loc 1 196 12 is_stmt 0 view .LVU107
 662 0008 8024     		movs	r4, #128
 663              		.loc 1 196 5 view .LVU108
 664 000a 02E0     		b	.L49
 665              	.LVL53:
 666              	.L50:
 197:User/Source/DPPTMIIC.c ****     {
 198:User/Source/DPPTMIIC.c ****         if (Byte & i)
 199:User/Source/DPPTMIIC.c ****         {
 200:User/Source/DPPTMIIC.c ****             Soft_IIC_Write_High();
 201:User/Source/DPPTMIIC.c ****         }
 202:User/Source/DPPTMIIC.c ****         else
 203:User/Source/DPPTMIIC.c ****         {
 204:User/Source/DPPTMIIC.c ****             Soft_IIC_Write_Low();
ARM GAS  C:\Users\Administrator\AppData\Local\Temp\cciYESlC.s 			page 16


 667              		.loc 1 204 13 is_stmt 1 view .LVU109
 668 000c FFF7FEFF 		bl	Soft_IIC_Write_Low
 669              	.LVL54:
 670              	.L51:
 196:User/Source/DPPTMIIC.c ****     for (i = 0x80; i != 0; i >>= 1)
 671              		.loc 1 196 30 discriminator 2 view .LVU110
 672 0010 6408     		lsrs	r4, r4, #1
 673              	.LVL55:
 674              	.L49:
 196:User/Source/DPPTMIIC.c ****     for (i = 0x80; i != 0; i >>= 1)
 675              		.loc 1 196 22 discriminator 1 view .LVU111
 676 0012 24B1     		cbz	r4, .L54
 198:User/Source/DPPTMIIC.c ****         {
 677              		.loc 1 198 9 view .LVU112
 198:User/Source/DPPTMIIC.c ****         {
 678              		.loc 1 198 12 is_stmt 0 view .LVU113
 679 0014 2C42     		tst	r4, r5
 680 0016 F9D0     		beq	.L50
 200:User/Source/DPPTMIIC.c ****         }
 681              		.loc 1 200 13 is_stmt 1 view .LVU114
 682 0018 FFF7FEFF 		bl	Soft_IIC_Write_High
 683              	.LVL56:
 684 001c F8E7     		b	.L51
 685              	.L54:
 205:User/Source/DPPTMIIC.c ****         }
 206:User/Source/DPPTMIIC.c ****     }
 207:User/Source/DPPTMIIC.c ****     return (Soft_IIC_Wait_ACK());
 686              		.loc 1 207 5 view .LVU115
 687              		.loc 1 207 13 is_stmt 0 view .LVU116
 688 001e FFF7FEFF 		bl	Soft_IIC_Wait_ACK
 689              	.LVL57:
 208:User/Source/DPPTMIIC.c **** }
 690              		.loc 1 208 1 view .LVU117
 691 0022 38BD     		pop	{r3, r4, r5, pc}
 692              		.loc 1 208 1 view .LVU118
 693              		.cfi_endproc
 694              	.LFE86:
 696              		.section	.text.Soft_IIC_Recv_Byte,"ax",%progbits
 697              		.align	1
 698              		.global	Soft_IIC_Recv_Byte
 699              		.syntax unified
 700              		.thumb
 701              		.thumb_func
 703              	Soft_IIC_Recv_Byte:
 704              	.LVL58:
 705              	.LFB87:
 209:User/Source/DPPTMIIC.c **** 
 210:User/Source/DPPTMIIC.c **** /**
 211:User/Source/DPPTMIIC.c ****  * @brief IIC读一个数据
 212:User/Source/DPPTMIIC.c ****  * @param  ACK:应答 NACK:不应答
 213:User/Source/DPPTMIIC.c ****  * @return 返回读到的数据
 214:User/Source/DPPTMIIC.c ****  */
 215:User/Source/DPPTMIIC.c **** uint8_t Soft_IIC_Recv_Byte(ACK_STATUS ack_sta)
 216:User/Source/DPPTMIIC.c **** {
 706              		.loc 1 216 1 is_stmt 1 view -0
 707              		.cfi_startproc
 708              		@ args = 0, pretend = 0, frame = 0
ARM GAS  C:\Users\Administrator\AppData\Local\Temp\cciYESlC.s 			page 17


 709              		@ frame_needed = 0, uses_anonymous_args = 0
 710              		.loc 1 216 1 is_stmt 0 view .LVU120
 711 0000 F8B5     		push	{r3, r4, r5, r6, r7, lr}
 712              	.LCFI15:
 713              		.cfi_def_cfa_offset 24
 714              		.cfi_offset 3, -24
 715              		.cfi_offset 4, -20
 716              		.cfi_offset 5, -16
 717              		.cfi_offset 6, -12
 718              		.cfi_offset 7, -8
 719              		.cfi_offset 14, -4
 720 0002 0746     		mov	r7, r0
 217:User/Source/DPPTMIIC.c ****     uint8_t data = 0, i;
 721              		.loc 1 217 5 is_stmt 1 view .LVU121
 722              	.LVL59:
 218:User/Source/DPPTMIIC.c ****     Soft_IIC_Input();
 723              		.loc 1 218 5 view .LVU122
 724 0004 FFF7FEFF 		bl	Soft_IIC_Input
 725              	.LVL60:
 219:User/Source/DPPTMIIC.c ****     IIC_SCL_H();
 726              		.loc 1 219 5 view .LVU123
 727 0008 0122     		movs	r2, #1
 728 000a 0821     		movs	r1, #8
 729 000c 1748     		ldr	r0, .L64
 730 000e FFF7FEFF 		bl	HAL_GPIO_WritePin
 731              	.LVL61:
 220:User/Source/DPPTMIIC.c ****     IIC_Delay_us(IIC_DELAY_TIME);
 732              		.loc 1 220 5 view .LVU124
 733 0012 0120     		movs	r0, #1
 734 0014 FFF7FEFF 		bl	IIC_Delay_us
 735              	.LVL62:
 221:User/Source/DPPTMIIC.c ****     for (i = 0x80; i != 0; i >>= 1)
 736              		.loc 1 221 5 view .LVU125
 737              		.loc 1 221 12 is_stmt 0 view .LVU126
 738 0018 8024     		movs	r4, #128
 217:User/Source/DPPTMIIC.c ****     Soft_IIC_Input();
 739              		.loc 1 217 13 view .LVU127
 740 001a 0026     		movs	r6, #0
 741              		.loc 1 221 5 view .LVU128
 742 001c 14E0     		b	.L56
 743              	.LVL63:
 744              	.L57:
 222:User/Source/DPPTMIIC.c ****     {
 223:User/Source/DPPTMIIC.c ****         if (HAL_GPIO_ReadPin(IIC_SDA_PORT, IIC_SDA_PIN) == 1)
 224:User/Source/DPPTMIIC.c ****         {
 225:User/Source/DPPTMIIC.c ****             data |= i;
 226:User/Source/DPPTMIIC.c ****         }
 227:User/Source/DPPTMIIC.c ****         IIC_Delay_us(IIC_DELAY_TIME);
 745              		.loc 1 227 9 is_stmt 1 view .LVU129
 746 001e 0120     		movs	r0, #1
 747 0020 FFF7FEFF 		bl	IIC_Delay_us
 748              	.LVL64:
 228:User/Source/DPPTMIIC.c ****         IIC_SCL_L();
 749              		.loc 1 228 9 view .LVU130
 750 0024 114D     		ldr	r5, .L64
 751 0026 0022     		movs	r2, #0
 752 0028 0821     		movs	r1, #8
ARM GAS  C:\Users\Administrator\AppData\Local\Temp\cciYESlC.s 			page 18


 753 002a 2846     		mov	r0, r5
 754 002c FFF7FEFF 		bl	HAL_GPIO_WritePin
 755              	.LVL65:
 229:User/Source/DPPTMIIC.c ****         IIC_Delay_us(IIC_DELAY_TIME);
 756              		.loc 1 229 9 view .LVU131
 757 0030 0120     		movs	r0, #1
 758 0032 FFF7FEFF 		bl	IIC_Delay_us
 759              	.LVL66:
 230:User/Source/DPPTMIIC.c ****         IIC_SCL_H();
 760              		.loc 1 230 9 view .LVU132
 761 0036 0122     		movs	r2, #1
 762 0038 0821     		movs	r1, #8
 763 003a 2846     		mov	r0, r5
 764 003c FFF7FEFF 		bl	HAL_GPIO_WritePin
 765              	.LVL67:
 231:User/Source/DPPTMIIC.c ****         IIC_Delay_us(IIC_DELAY_TIME);
 766              		.loc 1 231 9 view .LVU133
 767 0040 0120     		movs	r0, #1
 768 0042 FFF7FEFF 		bl	IIC_Delay_us
 769              	.LVL68:
 221:User/Source/DPPTMIIC.c ****     {
 770              		.loc 1 221 30 discriminator 2 view .LVU134
 771 0046 6408     		lsrs	r4, r4, #1
 772              	.LVL69:
 773              	.L56:
 221:User/Source/DPPTMIIC.c ****     {
 774              		.loc 1 221 22 discriminator 1 view .LVU135
 775 0048 3CB1     		cbz	r4, .L62
 223:User/Source/DPPTMIIC.c ****         {
 776              		.loc 1 223 9 view .LVU136
 223:User/Source/DPPTMIIC.c ****         {
 777              		.loc 1 223 13 is_stmt 0 view .LVU137
 778 004a 0421     		movs	r1, #4
 779 004c 0748     		ldr	r0, .L64
 780 004e FFF7FEFF 		bl	HAL_GPIO_ReadPin
 781              	.LVL70:
 223:User/Source/DPPTMIIC.c ****         {
 782              		.loc 1 223 12 discriminator 1 view .LVU138
 783 0052 0128     		cmp	r0, #1
 784 0054 E3D1     		bne	.L57
 225:User/Source/DPPTMIIC.c ****         }
 785              		.loc 1 225 13 is_stmt 1 view .LVU139
 225:User/Source/DPPTMIIC.c ****         }
 786              		.loc 1 225 18 is_stmt 0 view .LVU140
 787 0056 2643     		orrs	r6, r6, r4
 788              	.LVL71:
 225:User/Source/DPPTMIIC.c ****         }
 789              		.loc 1 225 18 view .LVU141
 790 0058 E1E7     		b	.L57
 791              	.LVL72:
 792              	.L62:
 232:User/Source/DPPTMIIC.c ****     }
 233:User/Source/DPPTMIIC.c ****     if (ack_sta == ACK)
 793              		.loc 1 233 5 is_stmt 1 view .LVU142
 794              		.loc 1 233 8 is_stmt 0 view .LVU143
 795 005a 012F     		cmp	r7, #1
 796 005c 03D0     		beq	.L63
ARM GAS  C:\Users\Administrator\AppData\Local\Temp\cciYESlC.s 			page 19


 234:User/Source/DPPTMIIC.c ****     {
 235:User/Source/DPPTMIIC.c ****         Soft_IIC_ACK();
 236:User/Source/DPPTMIIC.c ****     }
 237:User/Source/DPPTMIIC.c ****     else
 238:User/Source/DPPTMIIC.c ****     {
 239:User/Source/DPPTMIIC.c ****         Soft_IIC_NACK();
 797              		.loc 1 239 9 is_stmt 1 view .LVU144
 798 005e FFF7FEFF 		bl	Soft_IIC_NACK
 799              	.LVL73:
 800              	.L60:
 240:User/Source/DPPTMIIC.c ****     }
 241:User/Source/DPPTMIIC.c ****     return data;
 801              		.loc 1 241 5 view .LVU145
 242:User/Source/DPPTMIIC.c **** }
 802              		.loc 1 242 1 is_stmt 0 view .LVU146
 803 0062 3046     		mov	r0, r6
 804 0064 F8BD     		pop	{r3, r4, r5, r6, r7, pc}
 805              	.LVL74:
 806              	.L63:
 235:User/Source/DPPTMIIC.c ****     }
 807              		.loc 1 235 9 is_stmt 1 view .LVU147
 808 0066 FFF7FEFF 		bl	Soft_IIC_ACK
 809              	.LVL75:
 810 006a FAE7     		b	.L60
 811              	.L65:
 812              		.align	2
 813              	.L64:
 814 006c 00100140 		.word	1073811456
 815              		.cfi_endproc
 816              	.LFE87:
 818              		.section	.bss.wait.0,"aw",%nobits
 821              	wait.0:
 822 0000 00       		.space	1
 823              		.text
 824              	.Letext0:
 825              		.file 2 "D:/gcc-arm/14.3 rel1/arm-none-eabi/include/machine/_default_types.h"
 826              		.file 3 "D:/gcc-arm/14.3 rel1/arm-none-eabi/include/sys/_stdint.h"
 827              		.file 4 "Drivers/CMSIS/Device/ST/STM32F1xx/Include/stm32f103xg.h"
 828              		.file 5 "Drivers/STM32F1xx_HAL_Driver/Inc/stm32f1xx_hal_gpio.h"
 829              		.file 6 "User/Include/DPPTMIIC.h"
ARM GAS  C:\Users\Administrator\AppData\Local\Temp\cciYESlC.s 			page 20

