ARM GAS  C:\Users\Administrator\AppData\Local\Temp\ccyKAwsO.s 			page 1


   1              		.cpu cortex-m3
   2              		.arch armv7-m
   3              		.fpu softvfp
   4              		.eabi_attribute 20, 1
   5              		.eabi_attribute 21, 1
   6              		.eabi_attribute 23, 3
   7              		.eabi_attribute 24, 1
   8              		.eabi_attribute 25, 1
   9              		.eabi_attribute 26, 1
  10              		.eabi_attribute 30, 1
  11              		.eabi_attribute 34, 1
  12              		.eabi_attribute 18, 4
  13              		.file	"ESL4SPI.c"
  14              		.text
  15              	.Ltext0:
  16              		.cfi_sections	.debug_frame
  17              		.file 1 "User/Source/ESL4SPI.c"
  18              		.section	.text.SPI4_Delay_us,"ax",%progbits
  19              		.align	1
  20              		.syntax unified
  21              		.thumb
  22              		.thumb_func
  24              	SPI4_Delay_us:
  25              	.LVL0:
  26              	.LFB75:
   1:User/Source/ESL4SPI.c **** #include "ESL4SPI.h"
   2:User/Source/ESL4SPI.c **** 
   3:User/Source/ESL4SPI.c **** 
   4:User/Source/ESL4SPI.c **** 
   5:User/Source/ESL4SPI.c **** /**
   6:User/Source/ESL4SPI.c ****  * @brief IIC延时
   7:User/Source/ESL4SPI.c ****  * @param  无
   8:User/Source/ESL4SPI.c ****  * @return 无
   9:User/Source/ESL4SPI.c ****  */
  10:User/Source/ESL4SPI.c **** static void SPI4_Delay_us(uint32_t us)
  11:User/Source/ESL4SPI.c **** {
  27              		.loc 1 11 1 view -0
  28              		.cfi_startproc
  29              		@ args = 0, pretend = 0, frame = 0
  30              		@ frame_needed = 0, uses_anonymous_args = 0
  31              		@ link register save eliminated.
  12:User/Source/ESL4SPI.c ****     // 72MHz主频下，单条空指令约1/72μs，循环体包含减1和判断，约消耗8个指
  13:User/Source/ESL4SPI.c ****     // 计算循环次数：us * (72MHz / 1000000) / 8 ≈ us * 9
  14:User/Source/ESL4SPI.c ****     uint32_t i = us * 9; 
  32              		.loc 1 14 5 view .LVU1
  33              		.loc 1 14 14 is_stmt 0 view .LVU2
  34 0000 00EBC000 		add	r0, r0, r0, lsl #3
  35              	.LVL1:
  15:User/Source/ESL4SPI.c ****     while (i--)
  36              		.loc 1 15 5 is_stmt 1 view .LVU3
  37              		.loc 1 15 11 is_stmt 0 view .LVU4
  38 0004 01E0     		b	.L2
  39              	.LVL2:
  40              	.L3:
  16:User/Source/ESL4SPI.c ****     {
  17:User/Source/ESL4SPI.c ****        __NOP() ; // 空指令，减少编译器优化对延时的影响
  41              		.loc 1 17 8 is_stmt 1 view .LVU5
ARM GAS  C:\Users\Administrator\AppData\Local\Temp\ccyKAwsO.s 			page 2


  42              		.syntax unified
  43              	@ 17 "User/Source/ESL4SPI.c" 1
  44 0006 00BF     		nop
  45              	@ 0 "" 2
  15:User/Source/ESL4SPI.c ****     while (i--)
  46              		.loc 1 15 13 is_stmt 0 view .LVU6
  47              		.thumb
  48              		.syntax unified
  49 0008 1846     		mov	r0, r3
  50              	.LVL3:
  51              	.L2:
  15:User/Source/ESL4SPI.c ****     while (i--)
  52              		.loc 1 15 12 is_stmt 1 view .LVU7
  15:User/Source/ESL4SPI.c ****     while (i--)
  53              		.loc 1 15 13 is_stmt 0 view .LVU8
  54 000a 431E     		subs	r3, r0, #1
  55              	.LVL4:
  15:User/Source/ESL4SPI.c ****     while (i--)
  56              		.loc 1 15 12 view .LVU9
  57 000c 0028     		cmp	r0, #0
  58 000e FAD1     		bne	.L3
  18:User/Source/ESL4SPI.c ****     }
  19:User/Source/ESL4SPI.c **** }
  59              		.loc 1 19 1 view .LVU10
  60 0010 7047     		bx	lr
  61              		.cfi_endproc
  62              	.LFE75:
  64              		.section	.text.SDA_GPIO_Configuration,"ax",%progbits
  65              		.align	1
  66              		.global	SDA_GPIO_Configuration
  67              		.syntax unified
  68              		.thumb
  69              		.thumb_func
  71              	SDA_GPIO_Configuration:
  72              	.LVL5:
  73              	.LFB76:
  20:User/Source/ESL4SPI.c **** 
  21:User/Source/ESL4SPI.c **** 
  22:User/Source/ESL4SPI.c **** /**
  23:User/Source/ESL4SPI.c ****  * @brief          Configuration GPIO
  24:User/Source/ESL4SPI.c ****  * @param      	   mode: SDA_Out or SDA_In
  25:User/Source/ESL4SPI.c ****  * @return         null
  26:User/Source/ESL4SPI.c ****  * @note           This function configures whether the SDA GPIO is input or output
  27:User/Source/ESL4SPI.c ****  */
  28:User/Source/ESL4SPI.c **** void SDA_GPIO_Configuration(uint8_t mode)
  29:User/Source/ESL4SPI.c **** {
  74              		.loc 1 29 1 is_stmt 1 view -0
  75              		.cfi_startproc
  76              		@ args = 0, pretend = 0, frame = 24
  77              		@ frame_needed = 0, uses_anonymous_args = 0
  78              		.loc 1 29 1 is_stmt 0 view .LVU12
  79 0000 10B5     		push	{r4, lr}
  80              	.LCFI0:
  81              		.cfi_def_cfa_offset 8
  82              		.cfi_offset 4, -8
  83              		.cfi_offset 14, -4
  84 0002 86B0     		sub	sp, sp, #24
ARM GAS  C:\Users\Administrator\AppData\Local\Temp\ccyKAwsO.s 			page 3


  85              	.LCFI1:
  86              		.cfi_def_cfa_offset 32
  87 0004 0446     		mov	r4, r0
  30:User/Source/ESL4SPI.c **** 	GPIO_InitTypeDef  GPIO_InitStructure_ESL4SPI;
  88              		.loc 1 30 2 is_stmt 1 view .LVU13
  31:User/Source/ESL4SPI.c **** 
  32:User/Source/ESL4SPI.c **** 	__HAL_RCC_GPIOB_CLK_ENABLE();
  89              		.loc 1 32 2 view .LVU14
  90              	.LBB2:
  91              		.loc 1 32 2 view .LVU15
  92              		.loc 1 32 2 view .LVU16
  93 0006 144B     		ldr	r3, .L10
  94 0008 9A69     		ldr	r2, [r3, #24]
  95 000a 42F00802 		orr	r2, r2, #8
  96 000e 9A61     		str	r2, [r3, #24]
  97              		.loc 1 32 2 view .LVU17
  98 0010 9B69     		ldr	r3, [r3, #24]
  99 0012 03F00803 		and	r3, r3, #8
 100 0016 0193     		str	r3, [sp, #4]
 101              		.loc 1 32 2 view .LVU18
 102 0018 019B     		ldr	r3, [sp, #4]
 103              	.LBE2:
 104              		.loc 1 32 2 view .LVU19
  33:User/Source/ESL4SPI.c **** 	
  34:User/Source/ESL4SPI.c **** 	if(mode == SDA_OUT)
 105              		.loc 1 34 2 view .LVU20
 106              		.loc 1 34 4 is_stmt 0 view .LVU21
 107 001a 0128     		cmp	r0, #1
 108 001c 02D0     		beq	.L8
 109              	.LVL6:
 110              	.L5:
  35:User/Source/ESL4SPI.c **** 	{
  36:User/Source/ESL4SPI.c **** 		GPIO_InitStructure_ESL4SPI.Pin = SDA_GPIO_Pin_X;		
  37:User/Source/ESL4SPI.c **** 		GPIO_InitStructure_ESL4SPI.Mode = GPIO_MODE_OUTPUT_PP; 
  38:User/Source/ESL4SPI.c **** 		GPIO_InitStructure_ESL4SPI.Pull = GPIO_PULLUP;		 			
  39:User/Source/ESL4SPI.c **** 		GPIO_InitStructure_ESL4SPI.Speed = GPIO_SPEED_FREQ_HIGH;		 		
  40:User/Source/ESL4SPI.c **** 		HAL_GPIO_Init(SDA_GPIOX, &GPIO_InitStructure_ESL4SPI);	
  41:User/Source/ESL4SPI.c **** 	}
  42:User/Source/ESL4SPI.c **** 	if(mode == SDA_IN)
 111              		.loc 1 42 2 is_stmt 1 view .LVU22
 112              		.loc 1 42 4 is_stmt 0 view .LVU23
 113 001e 74B1     		cbz	r4, .L9
 114              	.L4:
  43:User/Source/ESL4SPI.c **** 	{
  44:User/Source/ESL4SPI.c **** 		GPIO_InitStructure_ESL4SPI.Pin  = SDA_GPIO_Pin_X;
  45:User/Source/ESL4SPI.c **** 		GPIO_InitStructure_ESL4SPI.Mode = GPIO_MODE_INPUT;
  46:User/Source/ESL4SPI.c ****   		GPIO_InitStructure_ESL4SPI.Pull = GPIO_NOPULL;
  47:User/Source/ESL4SPI.c **** 		GPIO_InitStructure_ESL4SPI.Speed = GPIO_SPEED_FREQ_HIGH;
  48:User/Source/ESL4SPI.c **** 		HAL_GPIO_Init(SDA_GPIOX, &GPIO_InitStructure_ESL4SPI);				
  49:User/Source/ESL4SPI.c **** 	}
  50:User/Source/ESL4SPI.c **** }
 115              		.loc 1 50 1 view .LVU24
 116 0020 06B0     		add	sp, sp, #24
 117              	.LCFI2:
 118              		.cfi_remember_state
 119              		.cfi_def_cfa_offset 8
 120              		@ sp needed
ARM GAS  C:\Users\Administrator\AppData\Local\Temp\ccyKAwsO.s 			page 4


 121 0022 10BD     		pop	{r4, pc}
 122              	.LVL7:
 123              	.L8:
 124              	.LCFI3:
 125              		.cfi_restore_state
  36:User/Source/ESL4SPI.c **** 		GPIO_InitStructure_ESL4SPI.Mode = GPIO_MODE_OUTPUT_PP; 
 126              		.loc 1 36 3 is_stmt 1 view .LVU25
  36:User/Source/ESL4SPI.c **** 		GPIO_InitStructure_ESL4SPI.Mode = GPIO_MODE_OUTPUT_PP; 
 127              		.loc 1 36 34 is_stmt 0 view .LVU26
 128 0024 4FF48063 		mov	r3, #1024
 129 0028 0293     		str	r3, [sp, #8]
  37:User/Source/ESL4SPI.c **** 		GPIO_InitStructure_ESL4SPI.Pull = GPIO_PULLUP;		 			
 130              		.loc 1 37 3 is_stmt 1 view .LVU27
  37:User/Source/ESL4SPI.c **** 		GPIO_InitStructure_ESL4SPI.Pull = GPIO_PULLUP;		 			
 131              		.loc 1 37 35 is_stmt 0 view .LVU28
 132 002a 0123     		movs	r3, #1
 133 002c 0393     		str	r3, [sp, #12]
  38:User/Source/ESL4SPI.c **** 		GPIO_InitStructure_ESL4SPI.Speed = GPIO_SPEED_FREQ_HIGH;		 		
 134              		.loc 1 38 3 is_stmt 1 view .LVU29
  38:User/Source/ESL4SPI.c **** 		GPIO_InitStructure_ESL4SPI.Speed = GPIO_SPEED_FREQ_HIGH;		 		
 135              		.loc 1 38 35 is_stmt 0 view .LVU30
 136 002e 0493     		str	r3, [sp, #16]
  39:User/Source/ESL4SPI.c **** 		HAL_GPIO_Init(SDA_GPIOX, &GPIO_InitStructure_ESL4SPI);	
 137              		.loc 1 39 3 is_stmt 1 view .LVU31
  39:User/Source/ESL4SPI.c **** 		HAL_GPIO_Init(SDA_GPIOX, &GPIO_InitStructure_ESL4SPI);	
 138              		.loc 1 39 36 is_stmt 0 view .LVU32
 139 0030 0323     		movs	r3, #3
 140 0032 0593     		str	r3, [sp, #20]
  40:User/Source/ESL4SPI.c **** 	}
 141              		.loc 1 40 3 is_stmt 1 view .LVU33
 142 0034 02A9     		add	r1, sp, #8
 143 0036 0948     		ldr	r0, .L10+4
 144              	.LVL8:
  40:User/Source/ESL4SPI.c **** 	}
 145              		.loc 1 40 3 is_stmt 0 view .LVU34
 146 0038 FFF7FEFF 		bl	HAL_GPIO_Init
 147              	.LVL9:
 148 003c EFE7     		b	.L5
 149              	.L9:
  44:User/Source/ESL4SPI.c **** 		GPIO_InitStructure_ESL4SPI.Mode = GPIO_MODE_INPUT;
 150              		.loc 1 44 3 is_stmt 1 view .LVU35
  44:User/Source/ESL4SPI.c **** 		GPIO_InitStructure_ESL4SPI.Mode = GPIO_MODE_INPUT;
 151              		.loc 1 44 35 is_stmt 0 view .LVU36
 152 003e 4FF48063 		mov	r3, #1024
 153 0042 0293     		str	r3, [sp, #8]
  45:User/Source/ESL4SPI.c ****   		GPIO_InitStructure_ESL4SPI.Pull = GPIO_NOPULL;
 154              		.loc 1 45 3 is_stmt 1 view .LVU37
  45:User/Source/ESL4SPI.c ****   		GPIO_InitStructure_ESL4SPI.Pull = GPIO_NOPULL;
 155              		.loc 1 45 35 is_stmt 0 view .LVU38
 156 0044 0023     		movs	r3, #0
 157 0046 0393     		str	r3, [sp, #12]
  46:User/Source/ESL4SPI.c **** 		GPIO_InitStructure_ESL4SPI.Speed = GPIO_SPEED_FREQ_HIGH;
 158              		.loc 1 46 5 is_stmt 1 view .LVU39
  46:User/Source/ESL4SPI.c **** 		GPIO_InitStructure_ESL4SPI.Speed = GPIO_SPEED_FREQ_HIGH;
 159              		.loc 1 46 37 is_stmt 0 view .LVU40
 160 0048 0493     		str	r3, [sp, #16]
  47:User/Source/ESL4SPI.c **** 		HAL_GPIO_Init(SDA_GPIOX, &GPIO_InitStructure_ESL4SPI);				
ARM GAS  C:\Users\Administrator\AppData\Local\Temp\ccyKAwsO.s 			page 5


 161              		.loc 1 47 3 is_stmt 1 view .LVU41
  47:User/Source/ESL4SPI.c **** 		HAL_GPIO_Init(SDA_GPIOX, &GPIO_InitStructure_ESL4SPI);				
 162              		.loc 1 47 36 is_stmt 0 view .LVU42
 163 004a 0323     		movs	r3, #3
 164 004c 0593     		str	r3, [sp, #20]
  48:User/Source/ESL4SPI.c **** 	}
 165              		.loc 1 48 3 is_stmt 1 view .LVU43
 166 004e 02A9     		add	r1, sp, #8
 167 0050 0248     		ldr	r0, .L10+4
 168 0052 FFF7FEFF 		bl	HAL_GPIO_Init
 169              	.LVL10:
 170              		.loc 1 50 1 is_stmt 0 view .LVU44
 171 0056 E3E7     		b	.L4
 172              	.L11:
 173              		.align	2
 174              	.L10:
 175 0058 00100240 		.word	1073876992
 176 005c 00100140 		.word	1073811456
 177              		.cfi_endproc
 178              	.LFE76:
 180              		.section	.text.SCL_GPIO_SetLevel,"ax",%progbits
 181              		.align	1
 182              		.global	SCL_GPIO_SetLevel
 183              		.syntax unified
 184              		.thumb
 185              		.thumb_func
 187              	SCL_GPIO_SetLevel:
 188              	.LVL11:
 189              	.LFB77:
  51:User/Source/ESL4SPI.c **** 
  52:User/Source/ESL4SPI.c **** 
  53:User/Source/ESL4SPI.c **** /**
  54:User/Source/ESL4SPI.c ****  * @brief          SCL_GPIO_SetLevel
  55:User/Source/ESL4SPI.c ****  * @param      	   level: SCL_High or SCL_Low
  56:User/Source/ESL4SPI.c ****  * @return         null
  57:User/Source/ESL4SPI.c ****  * @note           null
  58:User/Source/ESL4SPI.c ****  */
  59:User/Source/ESL4SPI.c **** void SCL_GPIO_SetLevel(uint8_t level)
  60:User/Source/ESL4SPI.c **** {
 190              		.loc 1 60 1 is_stmt 1 view -0
 191              		.cfi_startproc
 192              		@ args = 0, pretend = 0, frame = 0
 193              		@ frame_needed = 0, uses_anonymous_args = 0
 194              		.loc 1 60 1 is_stmt 0 view .LVU46
 195 0000 08B5     		push	{r3, lr}
 196              	.LCFI4:
 197              		.cfi_def_cfa_offset 8
 198              		.cfi_offset 3, -8
 199              		.cfi_offset 14, -4
  61:User/Source/ESL4SPI.c ****     level ? HAL_GPIO_WritePin(SCL_GPIOX, SCL_GPIO_Pin_X, GPIO_PIN_SET) : HAL_GPIO_WritePin(SCL_GPIO
 200              		.loc 1 61 5 is_stmt 1 view .LVU47
 201              		.loc 1 61 72 is_stmt 0 view .LVU48
 202 0002 30B1     		cbz	r0, .L13
 203              		.loc 1 61 13 discriminator 1 view .LVU49
 204 0004 0122     		movs	r2, #1
 205 0006 4FF40061 		mov	r1, #2048
 206 000a 0548     		ldr	r0, .L16
ARM GAS  C:\Users\Administrator\AppData\Local\Temp\ccyKAwsO.s 			page 6


 207              	.LVL12:
 208              		.loc 1 61 13 discriminator 1 view .LVU50
 209 000c FFF7FEFF 		bl	HAL_GPIO_WritePin
 210              	.LVL13:
 211              	.L12:
  62:User/Source/ESL4SPI.c **** }
 212              		.loc 1 62 1 view .LVU51
 213 0010 08BD     		pop	{r3, pc}
 214              	.LVL14:
 215              	.L13:
  61:User/Source/ESL4SPI.c ****     level ? HAL_GPIO_WritePin(SCL_GPIOX, SCL_GPIO_Pin_X, GPIO_PIN_SET) : HAL_GPIO_WritePin(SCL_GPIO
 216              		.loc 1 61 74 discriminator 2 view .LVU52
 217 0012 0022     		movs	r2, #0
 218 0014 4FF40061 		mov	r1, #2048
 219 0018 0148     		ldr	r0, .L16
 220              	.LVL15:
  61:User/Source/ESL4SPI.c ****     level ? HAL_GPIO_WritePin(SCL_GPIOX, SCL_GPIO_Pin_X, GPIO_PIN_SET) : HAL_GPIO_WritePin(SCL_GPIO
 221              		.loc 1 61 74 discriminator 2 view .LVU53
 222 001a FFF7FEFF 		bl	HAL_GPIO_WritePin
 223              	.LVL16:
 224              		.loc 1 62 1 view .LVU54
 225 001e F7E7     		b	.L12
 226              	.L17:
 227              		.align	2
 228              	.L16:
 229 0020 00100140 		.word	1073811456
 230              		.cfi_endproc
 231              	.LFE77:
 233              		.section	.text.CS_GPIO_SetLevel,"ax",%progbits
 234              		.align	1
 235              		.global	CS_GPIO_SetLevel
 236              		.syntax unified
 237              		.thumb
 238              		.thumb_func
 240              	CS_GPIO_SetLevel:
 241              	.LVL17:
 242              	.LFB78:
  63:User/Source/ESL4SPI.c **** 
  64:User/Source/ESL4SPI.c **** /**
  65:User/Source/ESL4SPI.c ****  * @brief          CSB_GPIO_SetLevel
  66:User/Source/ESL4SPI.c ****  * @param      	   level: CS_High or CS_Low
  67:User/Source/ESL4SPI.c ****  * @return         null
  68:User/Source/ESL4SPI.c ****  * @note           null
  69:User/Source/ESL4SPI.c ****  */
  70:User/Source/ESL4SPI.c **** void CS_GPIO_SetLevel(uint8_t level)
  71:User/Source/ESL4SPI.c **** {
 243              		.loc 1 71 1 is_stmt 1 view -0
 244              		.cfi_startproc
 245              		@ args = 0, pretend = 0, frame = 0
 246              		@ frame_needed = 0, uses_anonymous_args = 0
 247              		.loc 1 71 1 is_stmt 0 view .LVU56
 248 0000 08B5     		push	{r3, lr}
 249              	.LCFI5:
 250              		.cfi_def_cfa_offset 8
 251              		.cfi_offset 3, -8
 252              		.cfi_offset 14, -4
  72:User/Source/ESL4SPI.c **** 	level ? HAL_GPIO_WritePin(CSB_GPIOX, CSB_GPIO_Pin_X, GPIO_PIN_SET) : HAL_GPIO_WritePin(CSB_GPIOX, 
ARM GAS  C:\Users\Administrator\AppData\Local\Temp\ccyKAwsO.s 			page 7


 253              		.loc 1 72 2 is_stmt 1 view .LVU57
 254              		.loc 1 72 69 is_stmt 0 view .LVU58
 255 0002 30B1     		cbz	r0, .L19
 256              		.loc 1 72 10 discriminator 1 view .LVU59
 257 0004 0122     		movs	r2, #1
 258 0006 4FF48051 		mov	r1, #4096
 259 000a 0548     		ldr	r0, .L22
 260              	.LVL18:
 261              		.loc 1 72 10 discriminator 1 view .LVU60
 262 000c FFF7FEFF 		bl	HAL_GPIO_WritePin
 263              	.LVL19:
 264              	.L18:
  73:User/Source/ESL4SPI.c **** }
 265              		.loc 1 73 1 view .LVU61
 266 0010 08BD     		pop	{r3, pc}
 267              	.LVL20:
 268              	.L19:
  72:User/Source/ESL4SPI.c **** 	level ? HAL_GPIO_WritePin(CSB_GPIOX, CSB_GPIO_Pin_X, GPIO_PIN_SET) : HAL_GPIO_WritePin(CSB_GPIOX, 
 269              		.loc 1 72 71 discriminator 2 view .LVU62
 270 0012 0022     		movs	r2, #0
 271 0014 4FF48051 		mov	r1, #4096
 272 0018 0148     		ldr	r0, .L22
 273              	.LVL21:
  72:User/Source/ESL4SPI.c **** 	level ? HAL_GPIO_WritePin(CSB_GPIOX, CSB_GPIO_Pin_X, GPIO_PIN_SET) : HAL_GPIO_WritePin(CSB_GPIOX, 
 274              		.loc 1 72 71 discriminator 2 view .LVU63
 275 001a FFF7FEFF 		bl	HAL_GPIO_WritePin
 276              	.LVL22:
 277              		.loc 1 73 1 view .LVU64
 278 001e F7E7     		b	.L18
 279              	.L23:
 280              		.align	2
 281              	.L22:
 282 0020 00100140 		.word	1073811456
 283              		.cfi_endproc
 284              	.LFE78:
 286              		.section	.text.DC_GPIO_SetLevel,"ax",%progbits
 287              		.align	1
 288              		.global	DC_GPIO_SetLevel
 289              		.syntax unified
 290              		.thumb
 291              		.thumb_func
 293              	DC_GPIO_SetLevel:
 294              	.LVL23:
 295              	.LFB79:
  74:User/Source/ESL4SPI.c **** 
  75:User/Source/ESL4SPI.c **** 
  76:User/Source/ESL4SPI.c **** /**
  77:User/Source/ESL4SPI.c ****  * @brief          DC_GPIO_SetLevel
  78:User/Source/ESL4SPI.c ****  * @param      	   level: DC_High or DC_Low
  79:User/Source/ESL4SPI.c ****  * @return         null
  80:User/Source/ESL4SPI.c ****  * @note           null
  81:User/Source/ESL4SPI.c ****  */
  82:User/Source/ESL4SPI.c **** void DC_GPIO_SetLevel(uint8_t level)
  83:User/Source/ESL4SPI.c **** {
 296              		.loc 1 83 1 is_stmt 1 view -0
 297              		.cfi_startproc
 298              		@ args = 0, pretend = 0, frame = 0
ARM GAS  C:\Users\Administrator\AppData\Local\Temp\ccyKAwsO.s 			page 8


 299              		@ frame_needed = 0, uses_anonymous_args = 0
 300              		.loc 1 83 1 is_stmt 0 view .LVU66
 301 0000 08B5     		push	{r3, lr}
 302              	.LCFI6:
 303              		.cfi_def_cfa_offset 8
 304              		.cfi_offset 3, -8
 305              		.cfi_offset 14, -4
  84:User/Source/ESL4SPI.c **** 	level ? HAL_GPIO_WritePin(DC_GPIOX, DC_GPIO_Pin_X, GPIO_PIN_SET) : HAL_GPIO_WritePin(DC_GPIOX, DC_
 306              		.loc 1 84 2 is_stmt 1 view .LVU67
 307              		.loc 1 84 67 is_stmt 0 view .LVU68
 308 0002 28B1     		cbz	r0, .L25
 309              		.loc 1 84 10 discriminator 1 view .LVU69
 310 0004 0122     		movs	r2, #1
 311 0006 0421     		movs	r1, #4
 312 0008 0448     		ldr	r0, .L28
 313              	.LVL24:
 314              		.loc 1 84 10 discriminator 1 view .LVU70
 315 000a FFF7FEFF 		bl	HAL_GPIO_WritePin
 316              	.LVL25:
 317              	.L24:
  85:User/Source/ESL4SPI.c **** }
 318              		.loc 1 85 1 view .LVU71
 319 000e 08BD     		pop	{r3, pc}
 320              	.LVL26:
 321              	.L25:
  84:User/Source/ESL4SPI.c **** 	level ? HAL_GPIO_WritePin(DC_GPIOX, DC_GPIO_Pin_X, GPIO_PIN_SET) : HAL_GPIO_WritePin(DC_GPIOX, DC_
 322              		.loc 1 84 69 discriminator 2 view .LVU72
 323 0010 0022     		movs	r2, #0
 324 0012 0421     		movs	r1, #4
 325 0014 0148     		ldr	r0, .L28
 326              	.LVL27:
  84:User/Source/ESL4SPI.c **** 	level ? HAL_GPIO_WritePin(DC_GPIOX, DC_GPIO_Pin_X, GPIO_PIN_SET) : HAL_GPIO_WritePin(DC_GPIOX, DC_
 327              		.loc 1 84 69 discriminator 2 view .LVU73
 328 0016 FFF7FEFF 		bl	HAL_GPIO_WritePin
 329              	.LVL28:
 330              		.loc 1 85 1 view .LVU74
 331 001a F8E7     		b	.L24
 332              	.L29:
 333              		.align	2
 334              	.L28:
 335 001c 00140140 		.word	1073812480
 336              		.cfi_endproc
 337              	.LFE79:
 339              		.section	.text.SDA_GPIO_SetLevel,"ax",%progbits
 340              		.align	1
 341              		.global	SDA_GPIO_SetLevel
 342              		.syntax unified
 343              		.thumb
 344              		.thumb_func
 346              	SDA_GPIO_SetLevel:
 347              	.LVL29:
 348              	.LFB80:
  86:User/Source/ESL4SPI.c **** 
  87:User/Source/ESL4SPI.c **** /**
  88:User/Source/ESL4SPI.c ****  * @brief          SDA_GPIO_SetLevel
  89:User/Source/ESL4SPI.c ****  * @param      	   level: SDA_High or SDA_Low
  90:User/Source/ESL4SPI.c ****  * @return         null
ARM GAS  C:\Users\Administrator\AppData\Local\Temp\ccyKAwsO.s 			page 9


  91:User/Source/ESL4SPI.c ****  * @note           null
  92:User/Source/ESL4SPI.c ****  */
  93:User/Source/ESL4SPI.c **** void SDA_GPIO_SetLevel(uint8_t level)
  94:User/Source/ESL4SPI.c **** {
 349              		.loc 1 94 1 is_stmt 1 view -0
 350              		.cfi_startproc
 351              		@ args = 0, pretend = 0, frame = 0
 352              		@ frame_needed = 0, uses_anonymous_args = 0
 353              		.loc 1 94 1 is_stmt 0 view .LVU76
 354 0000 08B5     		push	{r3, lr}
 355              	.LCFI7:
 356              		.cfi_def_cfa_offset 8
 357              		.cfi_offset 3, -8
 358              		.cfi_offset 14, -4
  95:User/Source/ESL4SPI.c **** 	level ? HAL_GPIO_WritePin(SDA_GPIOX, SDA_GPIO_Pin_X, GPIO_PIN_SET) : HAL_GPIO_WritePin(SDA_GPIOX, 
 359              		.loc 1 95 2 is_stmt 1 view .LVU77
 360              		.loc 1 95 69 is_stmt 0 view .LVU78
 361 0002 30B1     		cbz	r0, .L31
 362              		.loc 1 95 10 discriminator 1 view .LVU79
 363 0004 0122     		movs	r2, #1
 364 0006 4FF48061 		mov	r1, #1024
 365 000a 0548     		ldr	r0, .L34
 366              	.LVL30:
 367              		.loc 1 95 10 discriminator 1 view .LVU80
 368 000c FFF7FEFF 		bl	HAL_GPIO_WritePin
 369              	.LVL31:
 370              	.L30:
  96:User/Source/ESL4SPI.c **** }
 371              		.loc 1 96 1 view .LVU81
 372 0010 08BD     		pop	{r3, pc}
 373              	.LVL32:
 374              	.L31:
  95:User/Source/ESL4SPI.c **** 	level ? HAL_GPIO_WritePin(SDA_GPIOX, SDA_GPIO_Pin_X, GPIO_PIN_SET) : HAL_GPIO_WritePin(SDA_GPIOX, 
 375              		.loc 1 95 71 discriminator 2 view .LVU82
 376 0012 0022     		movs	r2, #0
 377 0014 4FF48061 		mov	r1, #1024
 378 0018 0148     		ldr	r0, .L34
 379              	.LVL33:
  95:User/Source/ESL4SPI.c **** 	level ? HAL_GPIO_WritePin(SDA_GPIOX, SDA_GPIO_Pin_X, GPIO_PIN_SET) : HAL_GPIO_WritePin(SDA_GPIOX, 
 380              		.loc 1 95 71 discriminator 2 view .LVU83
 381 001a FFF7FEFF 		bl	HAL_GPIO_WritePin
 382              	.LVL34:
 383              		.loc 1 96 1 view .LVU84
 384 001e F7E7     		b	.L30
 385              	.L35:
 386              		.align	2
 387              	.L34:
 388 0020 00100140 		.word	1073811456
 389              		.cfi_endproc
 390              	.LFE80:
 392              		.section	.text.SPI4_Write_Byte,"ax",%progbits
 393              		.align	1
 394              		.global	SPI4_Write_Byte
 395              		.syntax unified
 396              		.thumb
 397              		.thumb_func
 399              	SPI4_Write_Byte:
ARM GAS  C:\Users\Administrator\AppData\Local\Temp\ccyKAwsO.s 			page 10


 400              	.LVL35:
 401              	.LFB81:
  97:User/Source/ESL4SPI.c **** 
  98:User/Source/ESL4SPI.c **** 
  99:User/Source/ESL4SPI.c **** /**
 100:User/Source/ESL4SPI.c ****  * @brief          SPI4_Write_Byte
 101:User/Source/ESL4SPI.c ****  * @param      	   value: This is command
 102:User/Source/ESL4SPI.c ****  * @return         null
 103:User/Source/ESL4SPI.c ****  * @note           null
 104:User/Source/ESL4SPI.c ****  */
 105:User/Source/ESL4SPI.c **** void SPI4_Write_Byte(uint8_t value)                                    
 106:User/Source/ESL4SPI.c **** {
 402              		.loc 1 106 1 is_stmt 1 view -0
 403              		.cfi_startproc
 404              		@ args = 0, pretend = 0, frame = 0
 405              		@ frame_needed = 0, uses_anonymous_args = 0
 406              		.loc 1 106 1 is_stmt 0 view .LVU86
 407 0000 38B5     		push	{r3, r4, r5, lr}
 408              	.LCFI8:
 409              		.cfi_def_cfa_offset 16
 410              		.cfi_offset 3, -16
 411              		.cfi_offset 4, -12
 412              		.cfi_offset 5, -8
 413              		.cfi_offset 14, -4
 414 0002 0446     		mov	r4, r0
 107:User/Source/ESL4SPI.c ****   	uint8_t i;	
 415              		.loc 1 107 4 is_stmt 1 view .LVU87
 108:User/Source/ESL4SPI.c **** 	SPI4_Delay_us(1);
 416              		.loc 1 108 2 view .LVU88
 417 0004 0120     		movs	r0, #1
 418              	.LVL36:
 419              		.loc 1 108 2 is_stmt 0 view .LVU89
 420 0006 FFF7FEFF 		bl	SPI4_Delay_us
 421              	.LVL37:
 109:User/Source/ESL4SPI.c **** 	for(i=0; i<8; i++)   
 422              		.loc 1 109 2 is_stmt 1 view .LVU90
 423              		.loc 1 109 7 is_stmt 0 view .LVU91
 424 000a 0025     		movs	r5, #0
 425              		.loc 1 109 2 view .LVU92
 426 000c 0FE0     		b	.L37
 427              	.LVL38:
 428              	.L43:
 110:User/Source/ESL4SPI.c **** 	{
 111:User/Source/ESL4SPI.c **** 		SCL_GPIO_SetLevel(SCL_Low);
 112:User/Source/ESL4SPI.c **** 		SPI4_Delay_us(1);
 113:User/Source/ESL4SPI.c **** 		
 114:User/Source/ESL4SPI.c **** 		if(value & 0x80)		
 115:User/Source/ESL4SPI.c **** 			SDA_GPIO_SetLevel(SDA_High);
 429              		.loc 1 115 4 is_stmt 1 view .LVU93
 430 000e 0120     		movs	r0, #1
 431 0010 FFF7FEFF 		bl	SDA_GPIO_SetLevel
 432              	.LVL39:
 433              	.L39:
 116:User/Source/ESL4SPI.c **** 		else
 117:User/Source/ESL4SPI.c **** 			SDA_GPIO_SetLevel(SDA_Low);	
 118:User/Source/ESL4SPI.c **** 		
 119:User/Source/ESL4SPI.c **** 		value = (value << 1); 
ARM GAS  C:\Users\Administrator\AppData\Local\Temp\ccyKAwsO.s 			page 11


 434              		.loc 1 119 3 view .LVU94
 435              		.loc 1 119 9 is_stmt 0 view .LVU95
 436 0014 6400     		lsls	r4, r4, #1
 437              	.LVL40:
 438              		.loc 1 119 9 view .LVU96
 439 0016 E4B2     		uxtb	r4, r4
 440              	.LVL41:
 120:User/Source/ESL4SPI.c **** 		SPI4_Delay_us(1);
 441              		.loc 1 120 3 is_stmt 1 view .LVU97
 442 0018 0120     		movs	r0, #1
 443 001a FFF7FEFF 		bl	SPI4_Delay_us
 444              	.LVL42:
 121:User/Source/ESL4SPI.c **** 		
 122:User/Source/ESL4SPI.c **** 		SCL_GPIO_SetLevel(SCL_High); 
 445              		.loc 1 122 3 view .LVU98
 446 001e 0120     		movs	r0, #1
 447 0020 FFF7FEFF 		bl	SCL_GPIO_SetLevel
 448              	.LVL43:
 123:User/Source/ESL4SPI.c **** 		SPI4_Delay_us(1);
 449              		.loc 1 123 3 view .LVU99
 450 0024 0120     		movs	r0, #1
 451 0026 FFF7FEFF 		bl	SPI4_Delay_us
 452              	.LVL44:
 109:User/Source/ESL4SPI.c **** 	{
 453              		.loc 1 109 17 discriminator 2 view .LVU100
 454 002a 0135     		adds	r5, r5, #1
 455              	.LVL45:
 109:User/Source/ESL4SPI.c **** 	{
 456              		.loc 1 109 17 is_stmt 0 discriminator 2 view .LVU101
 457 002c EDB2     		uxtb	r5, r5
 458              	.LVL46:
 459              	.L37:
 109:User/Source/ESL4SPI.c **** 	{
 460              		.loc 1 109 12 is_stmt 1 discriminator 1 view .LVU102
 461 002e 072D     		cmp	r5, #7
 462 0030 0CD8     		bhi	.L42
 111:User/Source/ESL4SPI.c **** 		SPI4_Delay_us(1);
 463              		.loc 1 111 3 view .LVU103
 464 0032 0020     		movs	r0, #0
 465 0034 FFF7FEFF 		bl	SCL_GPIO_SetLevel
 466              	.LVL47:
 112:User/Source/ESL4SPI.c **** 		
 467              		.loc 1 112 3 view .LVU104
 468 0038 0120     		movs	r0, #1
 469 003a FFF7FEFF 		bl	SPI4_Delay_us
 470              	.LVL48:
 114:User/Source/ESL4SPI.c **** 			SDA_GPIO_SetLevel(SDA_High);
 471              		.loc 1 114 3 view .LVU105
 114:User/Source/ESL4SPI.c **** 			SDA_GPIO_SetLevel(SDA_High);
 472              		.loc 1 114 5 is_stmt 0 view .LVU106
 473 003e 14F0800F 		tst	r4, #128
 474 0042 E4D1     		bne	.L43
 117:User/Source/ESL4SPI.c **** 		
 475              		.loc 1 117 4 is_stmt 1 view .LVU107
 476 0044 0020     		movs	r0, #0
 477 0046 FFF7FEFF 		bl	SDA_GPIO_SetLevel
 478              	.LVL49:
ARM GAS  C:\Users\Administrator\AppData\Local\Temp\ccyKAwsO.s 			page 12


 479 004a E3E7     		b	.L39
 480              	.L42:
 124:User/Source/ESL4SPI.c **** 	}
 125:User/Source/ESL4SPI.c **** 
 126:User/Source/ESL4SPI.c **** 	SCL_GPIO_SetLevel(SCL_Low);
 481              		.loc 1 126 2 view .LVU108
 482 004c 0020     		movs	r0, #0
 483 004e FFF7FEFF 		bl	SCL_GPIO_SetLevel
 484              	.LVL50:
 127:User/Source/ESL4SPI.c **** }
 485              		.loc 1 127 1 is_stmt 0 view .LVU109
 486 0052 38BD     		pop	{r3, r4, r5, pc}
 487              		.loc 1 127 1 view .LVU110
 488              		.cfi_endproc
 489              	.LFE81:
 491              		.section	.text.ESL4SPI_WriteCMD,"ax",%progbits
 492              		.align	1
 493              		.global	ESL4SPI_WriteCMD
 494              		.syntax unified
 495              		.thumb
 496              		.thumb_func
 498              	ESL4SPI_WriteCMD:
 499              	.LVL51:
 500              	.LFB82:
 128:User/Source/ESL4SPI.c **** 
 129:User/Source/ESL4SPI.c **** 
 130:User/Source/ESL4SPI.c **** /**
 131:User/Source/ESL4SPI.c ****  * @brief          SPI4_WriteCMD
 132:User/Source/ESL4SPI.c ****  * @param      	   command
 133:User/Source/ESL4SPI.c ****  * @return         null
 134:User/Source/ESL4SPI.c ****  * @note           null
 135:User/Source/ESL4SPI.c ****  */
 136:User/Source/ESL4SPI.c **** void ESL4SPI_WriteCMD(uint8_t command)
 137:User/Source/ESL4SPI.c **** {
 501              		.loc 1 137 1 is_stmt 1 view -0
 502              		.cfi_startproc
 503              		@ args = 0, pretend = 0, frame = 0
 504              		@ frame_needed = 0, uses_anonymous_args = 0
 505              		.loc 1 137 1 is_stmt 0 view .LVU112
 506 0000 10B5     		push	{r4, lr}
 507              	.LCFI9:
 508              		.cfi_def_cfa_offset 8
 509              		.cfi_offset 4, -8
 510              		.cfi_offset 14, -4
 511 0002 0446     		mov	r4, r0
 138:User/Source/ESL4SPI.c **** 	SDA_GPIO_Configuration(SDA_OUT);			//Config SDA output
 512              		.loc 1 138 2 is_stmt 1 view .LVU113
 513 0004 0120     		movs	r0, #1
 514              	.LVL52:
 515              		.loc 1 138 2 is_stmt 0 view .LVU114
 516 0006 FFF7FEFF 		bl	SDA_GPIO_Configuration
 517              	.LVL53:
 139:User/Source/ESL4SPI.c **** 	SPI4_Delay_us(1);
 518              		.loc 1 139 2 is_stmt 1 view .LVU115
 519 000a 0120     		movs	r0, #1
 520 000c FFF7FEFF 		bl	SPI4_Delay_us
 521              	.LVL54:
ARM GAS  C:\Users\Administrator\AppData\Local\Temp\ccyKAwsO.s 			page 13


 140:User/Source/ESL4SPI.c **** 	
 141:User/Source/ESL4SPI.c **** 	CS_GPIO_SetLevel(CSB_Low);                   
 522              		.loc 1 141 2 view .LVU116
 523 0010 0020     		movs	r0, #0
 524 0012 FFF7FEFF 		bl	CS_GPIO_SetLevel
 525              	.LVL55:
 142:User/Source/ESL4SPI.c **** 	DC_GPIO_SetLevel(DC_Low);					// command write
 526              		.loc 1 142 2 view .LVU117
 527 0016 0020     		movs	r0, #0
 528 0018 FFF7FEFF 		bl	DC_GPIO_SetLevel
 529              	.LVL56:
 143:User/Source/ESL4SPI.c **** 	SPI4_Delay_us(1) ;
 530              		.loc 1 143 2 view .LVU118
 531 001c 0120     		movs	r0, #1
 532 001e FFF7FEFF 		bl	SPI4_Delay_us
 533              	.LVL57:
 144:User/Source/ESL4SPI.c **** 	
 145:User/Source/ESL4SPI.c **** 	SPI4_Write_Byte(command);
 534              		.loc 1 145 2 view .LVU119
 535 0022 2046     		mov	r0, r4
 536 0024 FFF7FEFF 		bl	SPI4_Write_Byte
 537              	.LVL58:
 146:User/Source/ESL4SPI.c **** 	SPI4_Delay_us(1) ;
 538              		.loc 1 146 2 view .LVU120
 539 0028 0120     		movs	r0, #1
 540 002a FFF7FEFF 		bl	SPI4_Delay_us
 541              	.LVL59:
 147:User/Source/ESL4SPI.c **** 	
 148:User/Source/ESL4SPI.c **** 	CS_GPIO_SetLevel(CSB_High);
 542              		.loc 1 148 2 view .LVU121
 543 002e 0120     		movs	r0, #1
 544 0030 FFF7FEFF 		bl	CS_GPIO_SetLevel
 545              	.LVL60:
 149:User/Source/ESL4SPI.c **** }
 546              		.loc 1 149 1 is_stmt 0 view .LVU122
 547 0034 10BD     		pop	{r4, pc}
 548              		.loc 1 149 1 view .LVU123
 549              		.cfi_endproc
 550              	.LFE82:
 552              		.section	.text.ESL4SPI_WriteDATA,"ax",%progbits
 553              		.align	1
 554              		.global	ESL4SPI_WriteDATA
 555              		.syntax unified
 556              		.thumb
 557              		.thumb_func
 559              	ESL4SPI_WriteDATA:
 560              	.LVL61:
 561              	.LFB83:
 150:User/Source/ESL4SPI.c **** 
 151:User/Source/ESL4SPI.c **** /**
 152:User/Source/ESL4SPI.c ****  * @brief          SPI4_WriteDATA
 153:User/Source/ESL4SPI.c ****  * @param      	   data
 154:User/Source/ESL4SPI.c ****  * @return         null
 155:User/Source/ESL4SPI.c ****  * @note           null
 156:User/Source/ESL4SPI.c ****  */
 157:User/Source/ESL4SPI.c **** void ESL4SPI_WriteDATA(uint8_t data)
 158:User/Source/ESL4SPI.c **** {
ARM GAS  C:\Users\Administrator\AppData\Local\Temp\ccyKAwsO.s 			page 14


 562              		.loc 1 158 1 is_stmt 1 view -0
 563              		.cfi_startproc
 564              		@ args = 0, pretend = 0, frame = 0
 565              		@ frame_needed = 0, uses_anonymous_args = 0
 566              		.loc 1 158 1 is_stmt 0 view .LVU125
 567 0000 10B5     		push	{r4, lr}
 568              	.LCFI10:
 569              		.cfi_def_cfa_offset 8
 570              		.cfi_offset 4, -8
 571              		.cfi_offset 14, -4
 572 0002 0446     		mov	r4, r0
 159:User/Source/ESL4SPI.c **** 	SDA_GPIO_Configuration(SDA_OUT);
 573              		.loc 1 159 2 is_stmt 1 view .LVU126
 574 0004 0120     		movs	r0, #1
 575              	.LVL62:
 576              		.loc 1 159 2 is_stmt 0 view .LVU127
 577 0006 FFF7FEFF 		bl	SDA_GPIO_Configuration
 578              	.LVL63:
 160:User/Source/ESL4SPI.c ****   	SPI4_Delay_us(1);
 579              		.loc 1 160 4 is_stmt 1 view .LVU128
 580 000a 0120     		movs	r0, #1
 581 000c FFF7FEFF 		bl	SPI4_Delay_us
 582              	.LVL64:
 161:User/Source/ESL4SPI.c **** 	
 162:User/Source/ESL4SPI.c ****   	CS_GPIO_SetLevel(CSB_Low);                   
 583              		.loc 1 162 4 view .LVU129
 584 0010 0020     		movs	r0, #0
 585 0012 FFF7FEFF 		bl	CS_GPIO_SetLevel
 586              	.LVL65:
 163:User/Source/ESL4SPI.c **** 	DC_GPIO_SetLevel(DC_High);
 587              		.loc 1 163 2 view .LVU130
 588 0016 0120     		movs	r0, #1
 589 0018 FFF7FEFF 		bl	DC_GPIO_SetLevel
 590              	.LVL66:
 164:User/Source/ESL4SPI.c **** 	SPI4_Delay_us(1) ;
 591              		.loc 1 164 2 view .LVU131
 592 001c 0120     		movs	r0, #1
 593 001e FFF7FEFF 		bl	SPI4_Delay_us
 594              	.LVL67:
 165:User/Source/ESL4SPI.c **** 	
 166:User/Source/ESL4SPI.c **** 	SPI4_Write_Byte(data);
 595              		.loc 1 166 2 view .LVU132
 596 0022 2046     		mov	r0, r4
 597 0024 FFF7FEFF 		bl	SPI4_Write_Byte
 598              	.LVL68:
 167:User/Source/ESL4SPI.c **** 	SPI4_Delay_us(1);
 599              		.loc 1 167 2 view .LVU133
 600 0028 0120     		movs	r0, #1
 601 002a FFF7FEFF 		bl	SPI4_Delay_us
 602              	.LVL69:
 168:User/Source/ESL4SPI.c **** 	
 169:User/Source/ESL4SPI.c **** 	CS_GPIO_SetLevel(CSB_High);
 603              		.loc 1 169 2 view .LVU134
 604 002e 0120     		movs	r0, #1
 605 0030 FFF7FEFF 		bl	CS_GPIO_SetLevel
 606              	.LVL70:
 170:User/Source/ESL4SPI.c **** }
ARM GAS  C:\Users\Administrator\AppData\Local\Temp\ccyKAwsO.s 			page 15


 607              		.loc 1 170 1 is_stmt 0 view .LVU135
 608 0034 10BD     		pop	{r4, pc}
 609              		.loc 1 170 1 view .LVU136
 610              		.cfi_endproc
 611              	.LFE83:
 613              		.section	.text.ESL4SPI_ReadDATA,"ax",%progbits
 614              		.align	1
 615              		.global	ESL4SPI_ReadDATA
 616              		.syntax unified
 617              		.thumb
 618              		.thumb_func
 620              	ESL4SPI_ReadDATA:
 621              	.LFB84:
 171:User/Source/ESL4SPI.c **** 
 172:User/Source/ESL4SPI.c **** /**
 173:User/Source/ESL4SPI.c ****  * @brief          SPI4_ReadDATA
 174:User/Source/ESL4SPI.c ****  * @param      	   null
 175:User/Source/ESL4SPI.c ****  * @return         Read_Data
 176:User/Source/ESL4SPI.c ****  * @note           null
 177:User/Source/ESL4SPI.c ****  */
 178:User/Source/ESL4SPI.c **** unsigned char ESL4SPI_ReadDATA(void)
 179:User/Source/ESL4SPI.c **** {
 622              		.loc 1 179 1 is_stmt 1 view -0
 623              		.cfi_startproc
 624              		@ args = 0, pretend = 0, frame = 0
 625              		@ frame_needed = 0, uses_anonymous_args = 0
 626 0000 38B5     		push	{r3, r4, r5, lr}
 627              	.LCFI11:
 628              		.cfi_def_cfa_offset 16
 629              		.cfi_offset 3, -16
 630              		.cfi_offset 4, -12
 631              		.cfi_offset 5, -8
 632              		.cfi_offset 14, -4
 180:User/Source/ESL4SPI.c **** 	uint8_t scnt,Read_Data;
 633              		.loc 1 180 2 view .LVU138
 181:User/Source/ESL4SPI.c **** 	Read_Data=0;
 634              		.loc 1 181 2 view .LVU139
 635              	.LVL71:
 182:User/Source/ESL4SPI.c **** 	
 183:User/Source/ESL4SPI.c **** 	SDA_GPIO_Configuration(SDA_IN);     
 636              		.loc 1 183 2 view .LVU140
 637 0002 0020     		movs	r0, #0
 638 0004 FFF7FEFF 		bl	SDA_GPIO_Configuration
 639              	.LVL72:
 184:User/Source/ESL4SPI.c **** 	CS_GPIO_SetLevel(CSB_Low);                   
 640              		.loc 1 184 2 view .LVU141
 641 0008 0020     		movs	r0, #0
 642 000a FFF7FEFF 		bl	CS_GPIO_SetLevel
 643              	.LVL73:
 185:User/Source/ESL4SPI.c **** 	DC_GPIO_SetLevel(DC_High);
 644              		.loc 1 185 2 view .LVU142
 645 000e 0120     		movs	r0, #1
 646 0010 FFF7FEFF 		bl	DC_GPIO_SetLevel
 647              	.LVL74:
 186:User/Source/ESL4SPI.c **** 	SPI4_Delay_us(5);
 648              		.loc 1 186 2 view .LVU143
 649 0014 0520     		movs	r0, #5
ARM GAS  C:\Users\Administrator\AppData\Local\Temp\ccyKAwsO.s 			page 16


 650 0016 FFF7FEFF 		bl	SPI4_Delay_us
 651              	.LVL75:
 187:User/Source/ESL4SPI.c **** 	
 188:User/Source/ESL4SPI.c **** 	for(scnt=0;scnt<8;scnt++)
 652              		.loc 1 188 2 view .LVU144
 181:User/Source/ESL4SPI.c **** 	
 653              		.loc 1 181 11 is_stmt 0 view .LVU145
 654 001a 0025     		movs	r5, #0
 655              		.loc 1 188 10 view .LVU146
 656 001c 2C46     		mov	r4, r5
 657              		.loc 1 188 2 view .LVU147
 658 001e 0BE0     		b	.L49
 659              	.LVL76:
 660              	.L55:
 189:User/Source/ESL4SPI.c **** 	{
 190:User/Source/ESL4SPI.c **** 		SCL_GPIO_SetLevel(SCL_Low); 
 191:User/Source/ESL4SPI.c **** 		SPI4_Delay_us(5);
 192:User/Source/ESL4SPI.c **** 		
 193:User/Source/ESL4SPI.c **** 		if((HAL_GPIO_ReadPin(SDA_GPIOX,SDA_GPIO_Pin_X)) == 1)
 194:User/Source/ESL4SPI.c **** 		Read_Data=(Read_Data<<1)|0x01;
 661              		.loc 1 194 3 is_stmt 1 view .LVU148
 662              		.loc 1 194 27 is_stmt 0 view .LVU149
 663 0020 6D00     		lsls	r5, r5, #1
 664              	.LVL77:
 665              		.loc 1 194 27 view .LVU150
 666 0022 45F00105 		orr	r5, r5, #1
 667              		.loc 1 194 12 view .LVU151
 668 0026 EDB2     		uxtb	r5, r5
 669              	.LVL78:
 670              	.L51:
 195:User/Source/ESL4SPI.c **** 		else
 196:User/Source/ESL4SPI.c **** 		Read_Data=Read_Data<<1;	
 197:User/Source/ESL4SPI.c **** 		
 198:User/Source/ESL4SPI.c **** 		SCL_GPIO_SetLevel(SCL_High); 	  
 671              		.loc 1 198 3 is_stmt 1 view .LVU152
 672 0028 0120     		movs	r0, #1
 673 002a FFF7FEFF 		bl	SCL_GPIO_SetLevel
 674              	.LVL79:
 199:User/Source/ESL4SPI.c **** 		SCL_GPIO_SetLevel(SCL_Low);  
 675              		.loc 1 199 3 view .LVU153
 676 002e 0020     		movs	r0, #0
 677 0030 FFF7FEFF 		bl	SCL_GPIO_SetLevel
 678              	.LVL80:
 188:User/Source/ESL4SPI.c **** 	{
 679              		.loc 1 188 24 discriminator 2 view .LVU154
 680 0034 0134     		adds	r4, r4, #1
 681              	.LVL81:
 188:User/Source/ESL4SPI.c **** 	{
 682              		.loc 1 188 24 is_stmt 0 discriminator 2 view .LVU155
 683 0036 E4B2     		uxtb	r4, r4
 684              	.LVL82:
 685              	.L49:
 188:User/Source/ESL4SPI.c **** 	{
 686              		.loc 1 188 17 is_stmt 1 discriminator 1 view .LVU156
 687 0038 072C     		cmp	r4, #7
 688 003a 0FD8     		bhi	.L54
 190:User/Source/ESL4SPI.c **** 		SPI4_Delay_us(5);
ARM GAS  C:\Users\Administrator\AppData\Local\Temp\ccyKAwsO.s 			page 17


 689              		.loc 1 190 3 view .LVU157
 690 003c 0020     		movs	r0, #0
 691 003e FFF7FEFF 		bl	SCL_GPIO_SetLevel
 692              	.LVL83:
 191:User/Source/ESL4SPI.c **** 		
 693              		.loc 1 191 3 view .LVU158
 694 0042 0520     		movs	r0, #5
 695 0044 FFF7FEFF 		bl	SPI4_Delay_us
 696              	.LVL84:
 193:User/Source/ESL4SPI.c **** 		Read_Data=(Read_Data<<1)|0x01;
 697              		.loc 1 193 3 view .LVU159
 193:User/Source/ESL4SPI.c **** 		Read_Data=(Read_Data<<1)|0x01;
 698              		.loc 1 193 7 is_stmt 0 view .LVU160
 699 0048 4FF48061 		mov	r1, #1024
 700 004c 0448     		ldr	r0, .L56
 701 004e FFF7FEFF 		bl	HAL_GPIO_ReadPin
 702              	.LVL85:
 193:User/Source/ESL4SPI.c **** 		Read_Data=(Read_Data<<1)|0x01;
 703              		.loc 1 193 5 discriminator 1 view .LVU161
 704 0052 0128     		cmp	r0, #1
 705 0054 E4D0     		beq	.L55
 196:User/Source/ESL4SPI.c **** 		
 706              		.loc 1 196 3 is_stmt 1 view .LVU162
 196:User/Source/ESL4SPI.c **** 		
 707              		.loc 1 196 12 is_stmt 0 view .LVU163
 708 0056 6D00     		lsls	r5, r5, #1
 709              	.LVL86:
 196:User/Source/ESL4SPI.c **** 		
 710              		.loc 1 196 12 view .LVU164
 711 0058 EDB2     		uxtb	r5, r5
 712 005a E5E7     		b	.L51
 713              	.LVL87:
 714              	.L54:
 200:User/Source/ESL4SPI.c **** 	}
 201:User/Source/ESL4SPI.c **** 	return Read_Data;
 715              		.loc 1 201 2 is_stmt 1 view .LVU165
 202:User/Source/ESL4SPI.c **** }	
 716              		.loc 1 202 1 is_stmt 0 view .LVU166
 717 005c 2846     		mov	r0, r5
 718 005e 38BD     		pop	{r3, r4, r5, pc}
 719              	.LVL88:
 720              	.L57:
 721              		.loc 1 202 1 view .LVU167
 722              		.align	2
 723              	.L56:
 724 0060 00100140 		.word	1073811456
 725              		.cfi_endproc
 726              	.LFE84:
 728              		.text
 729              	.Letext0:
 730              		.file 2 "D:/gcc-arm/14.3 rel1/arm-none-eabi/include/machine/_default_types.h"
 731              		.file 3 "D:/gcc-arm/14.3 rel1/arm-none-eabi/include/sys/_stdint.h"
 732              		.file 4 "Drivers/CMSIS/Device/ST/STM32F1xx/Include/stm32f103xg.h"
 733              		.file 5 "Drivers/STM32F1xx_HAL_Driver/Inc/stm32f1xx_hal_gpio.h"
ARM GAS  C:\Users\Administrator\AppData\Local\Temp\ccyKAwsO.s 			page 18

