ARM GAS  C:\Users\Administrator\AppData\Local\Temp\ccqQWEB7.s 			page 1


   1              		.cpu cortex-m3
   2              		.arch armv7-m
   3              		.fpu softvfp
   4              		.eabi_attribute 20, 1
   5              		.eabi_attribute 21, 1
   6              		.eabi_attribute 23, 3
   7              		.eabi_attribute 24, 1
   8              		.eabi_attribute 25, 1
   9              		.eabi_attribute 26, 1
  10              		.eabi_attribute 30, 1
  11              		.eabi_attribute 34, 1
  12              		.eabi_attribute 18, 4
  13              		.file	"LCD.c"
  14              		.text
  15              	.Ltext0:
  16              		.cfi_sections	.debug_frame
  17              		.file 1 "User/Source/LCD.c"
  18              		.section	.text.LCDtest,"ax",%progbits
  19              		.align	1
  20              		.global	LCDtest
  21              		.syntax unified
  22              		.thumb
  23              		.thumb_func
  25              	LCDtest:
  26              	.LFB75:
   1:User/Source/LCD.c **** #include "LCD.h"
   2:User/Source/LCD.c **** 
   3:User/Source/LCD.c **** /**
   4:User/Source/LCD.c ****  * @函数名称       测试
   5:User/Source/LCD.c ****  * @说明           验证功能
   6:User/Source/LCD.c ****  */
   7:User/Source/LCD.c **** void LCDtest(void)
   8:User/Source/LCD.c **** {
  27              		.loc 1 8 1 view -0
  28              		.cfi_startproc
  29              		@ args = 0, pretend = 0, frame = 0
  30              		@ frame_needed = 0, uses_anonymous_args = 0
  31 0000 10B5     		push	{r4, lr}
  32              	.LCFI0:
  33              		.cfi_def_cfa_offset 8
  34              		.cfi_offset 4, -8
  35              		.cfi_offset 14, -4
   9:User/Source/LCD.c ****     LCD4SPI_WriteCMD(0xDF);
  36              		.loc 1 9 5 view .LVU1
  37 0002 DF20     		movs	r0, #223
  38 0004 FFF7FEFF 		bl	LCD4SPI_WriteCMD
  39              	.LVL0:
  10:User/Source/LCD.c ****     LCD4SPI_WriteDATA(0x98);
  40              		.loc 1 10 5 view .LVU2
  41 0008 9820     		movs	r0, #152
  42 000a FFF7FEFF 		bl	LCD4SPI_WriteDATA
  43              	.LVL1:
  11:User/Source/LCD.c ****     LCD4SPI_WriteDATA(0x53);
  44              		.loc 1 11 5 view .LVU3
  45 000e 5320     		movs	r0, #83
  46 0010 FFF7FEFF 		bl	LCD4SPI_WriteDATA
  47              	.LVL2:
ARM GAS  C:\Users\Administrator\AppData\Local\Temp\ccqQWEB7.s 			page 2


  12:User/Source/LCD.c **** 
  13:User/Source/LCD.c ****     LCD4SPI_WriteCMD(0xDE);
  48              		.loc 1 13 5 view .LVU4
  49 0014 DE20     		movs	r0, #222
  50 0016 FFF7FEFF 		bl	LCD4SPI_WriteCMD
  51              	.LVL3:
  14:User/Source/LCD.c ****     LCD4SPI_WriteDATA(0x00);
  52              		.loc 1 14 5 view .LVU5
  53 001a 0020     		movs	r0, #0
  54 001c FFF7FEFF 		bl	LCD4SPI_WriteDATA
  55              	.LVL4:
  15:User/Source/LCD.c **** 
  16:User/Source/LCD.c ****     LCD4SPI_WriteCMD(0xB2);
  56              		.loc 1 16 5 view .LVU6
  57 0020 B220     		movs	r0, #178
  58 0022 FFF7FEFF 		bl	LCD4SPI_WriteCMD
  59              	.LVL5:
  17:User/Source/LCD.c ****     LCD4SPI_WriteDATA(0x25);
  60              		.loc 1 17 5 view .LVU7
  61 0026 2520     		movs	r0, #37
  62 0028 FFF7FEFF 		bl	LCD4SPI_WriteDATA
  63              	.LVL6:
  18:User/Source/LCD.c **** 
  19:User/Source/LCD.c ****     LCD4SPI_WriteCMD(0xB7);
  64              		.loc 1 19 5 view .LVU8
  65 002c B720     		movs	r0, #183
  66 002e FFF7FEFF 		bl	LCD4SPI_WriteCMD
  67              	.LVL7:
  20:User/Source/LCD.c ****     LCD4SPI_WriteDATA(0x00);
  68              		.loc 1 20 5 view .LVU9
  69 0032 0020     		movs	r0, #0
  70 0034 FFF7FEFF 		bl	LCD4SPI_WriteDATA
  71              	.LVL8:
  21:User/Source/LCD.c ****     LCD4SPI_WriteDATA(0x29);//VGMP 4.5V
  72              		.loc 1 21 5 view .LVU10
  73 0038 2920     		movs	r0, #41
  74 003a FFF7FEFF 		bl	LCD4SPI_WriteDATA
  75              	.LVL9:
  22:User/Source/LCD.c ****     LCD4SPI_WriteDATA(0x00);
  76              		.loc 1 22 5 view .LVU11
  77 003e 0020     		movs	r0, #0
  78 0040 FFF7FEFF 		bl	LCD4SPI_WriteDATA
  79              	.LVL10:
  23:User/Source/LCD.c ****     LCD4SPI_WriteDATA(0x51);//VGSP 4.5V
  80              		.loc 1 23 5 view .LVU12
  81 0044 5120     		movs	r0, #81
  82 0046 FFF7FEFF 		bl	LCD4SPI_WriteDATA
  83              	.LVL11:
  24:User/Source/LCD.c **** 
  25:User/Source/LCD.c ****     LCD4SPI_WriteCMD(0xBB);
  84              		.loc 1 25 5 view .LVU13
  85 004a BB20     		movs	r0, #187
  86 004c FFF7FEFF 		bl	LCD4SPI_WriteCMD
  87              	.LVL12:
  26:User/Source/LCD.c ****     LCD4SPI_WriteDATA(0x44);
  88              		.loc 1 26 5 view .LVU14
  89 0050 4420     		movs	r0, #68
ARM GAS  C:\Users\Administrator\AppData\Local\Temp\ccqQWEB7.s 			page 3


  90 0052 FFF7FEFF 		bl	LCD4SPI_WriteDATA
  91              	.LVL13:
  27:User/Source/LCD.c ****     LCD4SPI_WriteDATA(0x2B);
  92              		.loc 1 27 5 view .LVU15
  93 0056 2B20     		movs	r0, #43
  94 0058 FFF7FEFF 		bl	LCD4SPI_WriteDATA
  95              	.LVL14:
  28:User/Source/LCD.c ****     LCD4SPI_WriteDATA(0x37);
  96              		.loc 1 28 5 view .LVU16
  97 005c 3720     		movs	r0, #55
  98 005e FFF7FEFF 		bl	LCD4SPI_WriteDATA
  99              	.LVL15:
  29:User/Source/LCD.c ****     LCD4SPI_WriteDATA(0x61);
 100              		.loc 1 29 5 view .LVU17
 101 0062 6120     		movs	r0, #97
 102 0064 FFF7FEFF 		bl	LCD4SPI_WriteDATA
 103              	.LVL16:
  30:User/Source/LCD.c ****     LCD4SPI_WriteDATA(0x63);
 104              		.loc 1 30 5 view .LVU18
 105 0068 6320     		movs	r0, #99
 106 006a FFF7FEFF 		bl	LCD4SPI_WriteDATA
 107              	.LVL17:
  31:User/Source/LCD.c ****     LCD4SPI_WriteDATA(0xF0);
 108              		.loc 1 31 5 view .LVU19
 109 006e F020     		movs	r0, #240
 110 0070 FFF7FEFF 		bl	LCD4SPI_WriteDATA
 111              	.LVL18:
  32:User/Source/LCD.c **** 
  33:User/Source/LCD.c ****     // LCD4SPI_WriteCMD(0xBC);
  34:User/Source/LCD.c ****     // LCD4SPI_WriteDATA(0x77);
  35:User/Source/LCD.c **** 
  36:User/Source/LCD.c ****     LCD4SPI_WriteCMD(0xC0);
 112              		.loc 1 36 5 view .LVU20
 113 0074 C020     		movs	r0, #192
 114 0076 FFF7FEFF 		bl	LCD4SPI_WriteCMD
 115              	.LVL19:
  37:User/Source/LCD.c ****     LCD4SPI_WriteDATA(0x44);
 116              		.loc 1 37 5 view .LVU21
 117 007a 4420     		movs	r0, #68
 118 007c FFF7FEFF 		bl	LCD4SPI_WriteDATA
 119              	.LVL20:
  38:User/Source/LCD.c ****     LCD4SPI_WriteDATA(0xA4);
 120              		.loc 1 38 5 view .LVU22
 121 0080 A420     		movs	r0, #164
 122 0082 FFF7FEFF 		bl	LCD4SPI_WriteDATA
 123              	.LVL21:
  39:User/Source/LCD.c **** 
  40:User/Source/LCD.c ****     LCD4SPI_WriteCMD(0xC1);
 124              		.loc 1 40 5 view .LVU23
 125 0086 C120     		movs	r0, #193
 126 0088 FFF7FEFF 		bl	LCD4SPI_WriteCMD
 127              	.LVL22:
  41:User/Source/LCD.c ****     LCD4SPI_WriteDATA(0x12);
 128              		.loc 1 41 5 view .LVU24
 129 008c 1220     		movs	r0, #18
 130 008e FFF7FEFF 		bl	LCD4SPI_WriteDATA
 131              	.LVL23:
ARM GAS  C:\Users\Administrator\AppData\Local\Temp\ccqQWEB7.s 			page 4


  42:User/Source/LCD.c **** 
  43:User/Source/LCD.c ****     LCD4SPI_WriteCMD(0xC3);
 132              		.loc 1 43 5 view .LVU25
 133 0092 C320     		movs	r0, #195
 134 0094 FFF7FEFF 		bl	LCD4SPI_WriteCMD
 135              	.LVL24:
  44:User/Source/LCD.c ****     LCD4SPI_WriteDATA(0x7D);
 136              		.loc 1 44 5 view .LVU26
 137 0098 7D20     		movs	r0, #125
 138 009a FFF7FEFF 		bl	LCD4SPI_WriteDATA
 139              	.LVL25:
  45:User/Source/LCD.c ****     LCD4SPI_WriteDATA(0x07);
 140              		.loc 1 45 5 view .LVU27
 141 009e 0720     		movs	r0, #7
 142 00a0 FFF7FEFF 		bl	LCD4SPI_WriteDATA
 143              	.LVL26:
  46:User/Source/LCD.c ****     LCD4SPI_WriteDATA(0x14);
 144              		.loc 1 46 5 view .LVU28
 145 00a4 1420     		movs	r0, #20
 146 00a6 FFF7FEFF 		bl	LCD4SPI_WriteDATA
 147              	.LVL27:
  47:User/Source/LCD.c ****     LCD4SPI_WriteDATA(0x06);
 148              		.loc 1 47 5 view .LVU29
 149 00aa 0620     		movs	r0, #6
 150 00ac FFF7FEFF 		bl	LCD4SPI_WriteDATA
 151              	.LVL28:
  48:User/Source/LCD.c ****     LCD4SPI_WriteDATA(0xC8);
 152              		.loc 1 48 5 view .LVU30
 153 00b0 C820     		movs	r0, #200
 154 00b2 FFF7FEFF 		bl	LCD4SPI_WriteDATA
 155              	.LVL29:
  49:User/Source/LCD.c ****     LCD4SPI_WriteDATA(0x71);
 156              		.loc 1 49 5 view .LVU31
 157 00b6 7120     		movs	r0, #113
 158 00b8 FFF7FEFF 		bl	LCD4SPI_WriteDATA
 159              	.LVL30:
  50:User/Source/LCD.c ****     LCD4SPI_WriteDATA(0x6C);
 160              		.loc 1 50 5 view .LVU32
 161 00bc 6C20     		movs	r0, #108
 162 00be FFF7FEFF 		bl	LCD4SPI_WriteDATA
 163              	.LVL31:
  51:User/Source/LCD.c ****     LCD4SPI_WriteDATA(0x77);
 164              		.loc 1 51 5 view .LVU33
 165 00c2 7720     		movs	r0, #119
 166 00c4 FFF7FEFF 		bl	LCD4SPI_WriteDATA
 167              	.LVL32:
  52:User/Source/LCD.c **** 
  53:User/Source/LCD.c ****     LCD4SPI_WriteCMD(0xC4);
 168              		.loc 1 53 5 view .LVU34
 169 00c8 C420     		movs	r0, #196
 170 00ca FFF7FEFF 		bl	LCD4SPI_WriteCMD
 171              	.LVL33:
  54:User/Source/LCD.c ****     LCD4SPI_WriteDATA(0x00);//00=60Hz 06=53Hz 08=42Hz
 172              		.loc 1 54 5 view .LVU35
 173 00ce 0020     		movs	r0, #0
 174 00d0 FFF7FEFF 		bl	LCD4SPI_WriteDATA
 175              	.LVL34:
ARM GAS  C:\Users\Administrator\AppData\Local\Temp\ccqQWEB7.s 			page 5


  55:User/Source/LCD.c ****     LCD4SPI_WriteDATA(0x10);
 176              		.loc 1 55 5 view .LVU36
 177 00d4 1020     		movs	r0, #16
 178 00d6 FFF7FEFF 		bl	LCD4SPI_WriteDATA
 179              	.LVL35:
  56:User/Source/LCD.c ****     LCD4SPI_WriteDATA(0x94);//LN=296  Line
 180              		.loc 1 56 5 view .LVU37
 181 00da 9420     		movs	r0, #148
 182 00dc FFF7FEFF 		bl	LCD4SPI_WriteDATA
 183              	.LVL36:
  57:User/Source/LCD.c ****     LCD4SPI_WriteDATA(0x79);
 184              		.loc 1 57 5 view .LVU38
 185 00e0 7920     		movs	r0, #121
 186 00e2 FFF7FEFF 		bl	LCD4SPI_WriteDATA
 187              	.LVL37:
  58:User/Source/LCD.c ****     LCD4SPI_WriteDATA(0x25);
 188              		.loc 1 58 5 view .LVU39
 189 00e6 2520     		movs	r0, #37
 190 00e8 FFF7FEFF 		bl	LCD4SPI_WriteDATA
 191              	.LVL38:
  59:User/Source/LCD.c ****     LCD4SPI_WriteDATA(0x0A);
 192              		.loc 1 59 5 view .LVU40
 193 00ec 0A20     		movs	r0, #10
 194 00ee FFF7FEFF 		bl	LCD4SPI_WriteDATA
 195              	.LVL39:
  60:User/Source/LCD.c ****     LCD4SPI_WriteDATA(0x16);
 196              		.loc 1 60 5 view .LVU41
 197 00f2 1620     		movs	r0, #22
 198 00f4 FFF7FEFF 		bl	LCD4SPI_WriteDATA
 199              	.LVL40:
  61:User/Source/LCD.c ****     LCD4SPI_WriteDATA(0x79);
 200              		.loc 1 61 5 view .LVU42
 201 00f8 7920     		movs	r0, #121
 202 00fa FFF7FEFF 		bl	LCD4SPI_WriteDATA
 203              	.LVL41:
  62:User/Source/LCD.c ****     LCD4SPI_WriteDATA(0x25);
 204              		.loc 1 62 5 view .LVU43
 205 00fe 2520     		movs	r0, #37
 206 0100 FFF7FEFF 		bl	LCD4SPI_WriteDATA
 207              	.LVL42:
  63:User/Source/LCD.c ****     LCD4SPI_WriteDATA(0x0A);
 208              		.loc 1 63 5 view .LVU44
 209 0104 0A20     		movs	r0, #10
 210 0106 FFF7FEFF 		bl	LCD4SPI_WriteDATA
 211              	.LVL43:
  64:User/Source/LCD.c ****     LCD4SPI_WriteDATA(0x16);
 212              		.loc 1 64 5 view .LVU45
 213 010a 1620     		movs	r0, #22
 214 010c FFF7FEFF 		bl	LCD4SPI_WriteDATA
 215              	.LVL44:
  65:User/Source/LCD.c ****     LCD4SPI_WriteDATA(0x82);
 216              		.loc 1 65 5 view .LVU46
 217 0110 8220     		movs	r0, #130
 218 0112 FFF7FEFF 		bl	LCD4SPI_WriteDATA
 219              	.LVL45:
  66:User/Source/LCD.c **** 
  67:User/Source/LCD.c ****     //SET_R_GAMMA Fit VOP4.5 G2.0 20231116
ARM GAS  C:\Users\Administrator\AppData\Local\Temp\ccqQWEB7.s 			page 6


  68:User/Source/LCD.c ****     LCD4SPI_WriteCMD(0xC8);	//G2.2	//G2.5
 220              		.loc 1 68 5 view .LVU47
 221 0116 C820     		movs	r0, #200
 222 0118 FFF7FEFF 		bl	LCD4SPI_WriteCMD
 223              	.LVL46:
  69:User/Source/LCD.c ****     LCD4SPI_WriteDATA(0x3F);	//0x3F	//0x3F
 224              		.loc 1 69 5 view .LVU48
 225 011c 3F20     		movs	r0, #63
 226 011e FFF7FEFF 		bl	LCD4SPI_WriteDATA
 227              	.LVL47:
  70:User/Source/LCD.c ****     LCD4SPI_WriteDATA(0x34);	//0x33	//0x32
 228              		.loc 1 70 5 view .LVU49
 229 0122 3420     		movs	r0, #52
 230 0124 FFF7FEFF 		bl	LCD4SPI_WriteDATA
 231              	.LVL48:
  71:User/Source/LCD.c ****     LCD4SPI_WriteDATA(0x2D);	//0x2B	//0x2A
 232              		.loc 1 71 5 view .LVU50
 233 0128 2D20     		movs	r0, #45
 234 012a FFF7FEFF 		bl	LCD4SPI_WriteDATA
 235              	.LVL49:
  72:User/Source/LCD.c ****     LCD4SPI_WriteDATA(0x26);	//0x25	//0x22
 236              		.loc 1 72 5 view .LVU51
 237 012e 2620     		movs	r0, #38
 238 0130 FFF7FEFF 		bl	LCD4SPI_WriteDATA
 239              	.LVL50:
  73:User/Source/LCD.c ****     LCD4SPI_WriteDATA(0x2B);	//0x29	//0x26
 240              		.loc 1 73 5 view .LVU52
 241 0134 2B20     		movs	r0, #43
 242 0136 FFF7FEFF 		bl	LCD4SPI_WriteDATA
 243              	.LVL51:
  74:User/Source/LCD.c ****     LCD4SPI_WriteDATA(0x2B);	//0x28	//0x25
 244              		.loc 1 74 5 view .LVU53
 245 013a 2B20     		movs	r0, #43
 246 013c FFF7FEFF 		bl	LCD4SPI_WriteDATA
 247              	.LVL52:
  75:User/Source/LCD.c ****     LCD4SPI_WriteDATA(0x25);	//0x22	//0x1E
 248              		.loc 1 75 5 view .LVU54
 249 0140 2520     		movs	r0, #37
 250 0142 FFF7FEFF 		bl	LCD4SPI_WriteDATA
 251              	.LVL53:
  76:User/Source/LCD.c ****     LCD4SPI_WriteDATA(0x24);	//0x21	//0x1E
 252              		.loc 1 76 5 view .LVU55
 253 0146 2420     		movs	r0, #36
 254 0148 FFF7FEFF 		bl	LCD4SPI_WriteDATA
 255              	.LVL54:
  77:User/Source/LCD.c ****     LCD4SPI_WriteDATA(0x23);	//0x20	//0x1C
 256              		.loc 1 77 5 view .LVU56
 257 014c 2320     		movs	r0, #35
 258 014e FFF7FEFF 		bl	LCD4SPI_WriteDATA
 259              	.LVL55:
  78:User/Source/LCD.c ****     LCD4SPI_WriteDATA(0x22);	//0x1F	//0x1C
 260              		.loc 1 78 5 view .LVU57
 261 0152 2220     		movs	r0, #34
 262 0154 FFF7FEFF 		bl	LCD4SPI_WriteDATA
 263              	.LVL56:
  79:User/Source/LCD.c ****     LCD4SPI_WriteDATA(0x20);	//0x1E	//0x19
 264              		.loc 1 79 5 view .LVU58
ARM GAS  C:\Users\Administrator\AppData\Local\Temp\ccqQWEB7.s 			page 7


 265 0158 2020     		movs	r0, #32
 266 015a FFF7FEFF 		bl	LCD4SPI_WriteDATA
 267              	.LVL57:
  80:User/Source/LCD.c ****     LCD4SPI_WriteDATA(0x17);	//0x14	//0x0E
 268              		.loc 1 80 5 view .LVU59
 269 015e 1720     		movs	r0, #23
 270 0160 FFF7FEFF 		bl	LCD4SPI_WriteDATA
 271              	.LVL58:
  81:User/Source/LCD.c ****     LCD4SPI_WriteDATA(0x14);	//0x0F	//0x09
 272              		.loc 1 81 5 view .LVU60
 273 0164 1420     		movs	r0, #20
 274 0166 FFF7FEFF 		bl	LCD4SPI_WriteDATA
 275              	.LVL59:
  82:User/Source/LCD.c ****     LCD4SPI_WriteDATA(0x0E);	//0x0A	//0x02
 276              		.loc 1 82 5 view .LVU61
 277 016a 0E20     		movs	r0, #14
 278 016c FFF7FEFF 		bl	LCD4SPI_WriteDATA
 279              	.LVL60:
  83:User/Source/LCD.c ****     LCD4SPI_WriteDATA(0x06);	//0x06	//0x06
 280              		.loc 1 83 5 view .LVU62
 281 0170 0620     		movs	r0, #6
 282 0172 FFF7FEFF 		bl	LCD4SPI_WriteDATA
 283              	.LVL61:
  84:User/Source/LCD.c ****     LCD4SPI_WriteDATA(0x00);	//0x00	//0x00
 284              		.loc 1 84 5 view .LVU63
 285 0176 0020     		movs	r0, #0
 286 0178 FFF7FEFF 		bl	LCD4SPI_WriteDATA
 287              	.LVL62:
  85:User/Source/LCD.c ****     LCD4SPI_WriteDATA(0x3F);	//0x3F	//0x3F
 288              		.loc 1 85 5 view .LVU64
 289 017c 3F20     		movs	r0, #63
 290 017e FFF7FEFF 		bl	LCD4SPI_WriteDATA
 291              	.LVL63:
  86:User/Source/LCD.c ****     LCD4SPI_WriteDATA(0x34);	//0x33	//0x32
 292              		.loc 1 86 5 view .LVU65
 293 0182 3420     		movs	r0, #52
 294 0184 FFF7FEFF 		bl	LCD4SPI_WriteDATA
 295              	.LVL64:
  87:User/Source/LCD.c ****     LCD4SPI_WriteDATA(0x2D);	//0x2B	//0x2A
 296              		.loc 1 87 5 view .LVU66
 297 0188 2D20     		movs	r0, #45
 298 018a FFF7FEFF 		bl	LCD4SPI_WriteDATA
 299              	.LVL65:
  88:User/Source/LCD.c ****     LCD4SPI_WriteDATA(0x26);	//0x25	//0x22
 300              		.loc 1 88 5 view .LVU67
 301 018e 2620     		movs	r0, #38
 302 0190 FFF7FEFF 		bl	LCD4SPI_WriteDATA
 303              	.LVL66:
  89:User/Source/LCD.c ****     LCD4SPI_WriteDATA(0x2B);	//0x29	//0x26
 304              		.loc 1 89 5 view .LVU68
 305 0194 2B20     		movs	r0, #43
 306 0196 FFF7FEFF 		bl	LCD4SPI_WriteDATA
 307              	.LVL67:
  90:User/Source/LCD.c ****     LCD4SPI_WriteDATA(0x2B);	//0x28	//0x25
 308              		.loc 1 90 5 view .LVU69
 309 019a 2B20     		movs	r0, #43
 310 019c FFF7FEFF 		bl	LCD4SPI_WriteDATA
ARM GAS  C:\Users\Administrator\AppData\Local\Temp\ccqQWEB7.s 			page 8


 311              	.LVL68:
  91:User/Source/LCD.c ****     LCD4SPI_WriteDATA(0x25);	//0x22	//0x1E
 312              		.loc 1 91 5 view .LVU70
 313 01a0 2520     		movs	r0, #37
 314 01a2 FFF7FEFF 		bl	LCD4SPI_WriteDATA
 315              	.LVL69:
  92:User/Source/LCD.c ****     LCD4SPI_WriteDATA(0x24);	//0x21	//0x1E
 316              		.loc 1 92 5 view .LVU71
 317 01a6 2420     		movs	r0, #36
 318 01a8 FFF7FEFF 		bl	LCD4SPI_WriteDATA
 319              	.LVL70:
  93:User/Source/LCD.c ****     LCD4SPI_WriteDATA(0x23);	//0x20	//0x1C
 320              		.loc 1 93 5 view .LVU72
 321 01ac 2320     		movs	r0, #35
 322 01ae FFF7FEFF 		bl	LCD4SPI_WriteDATA
 323              	.LVL71:
  94:User/Source/LCD.c ****     LCD4SPI_WriteDATA(0x22);	//0x1F	//0x1C
 324              		.loc 1 94 5 view .LVU73
 325 01b2 2220     		movs	r0, #34
 326 01b4 FFF7FEFF 		bl	LCD4SPI_WriteDATA
 327              	.LVL72:
  95:User/Source/LCD.c ****     LCD4SPI_WriteDATA(0x20);	//0x1E	//0x19
 328              		.loc 1 95 5 view .LVU74
 329 01b8 2020     		movs	r0, #32
 330 01ba FFF7FEFF 		bl	LCD4SPI_WriteDATA
 331              	.LVL73:
  96:User/Source/LCD.c ****     LCD4SPI_WriteDATA(0x17);	//0x14	//0x0E
 332              		.loc 1 96 5 view .LVU75
 333 01be 1720     		movs	r0, #23
 334 01c0 FFF7FEFF 		bl	LCD4SPI_WriteDATA
 335              	.LVL74:
  97:User/Source/LCD.c ****     LCD4SPI_WriteDATA(0x14);	//0x0F	//0x09
 336              		.loc 1 97 5 view .LVU76
 337 01c4 1420     		movs	r0, #20
 338 01c6 FFF7FEFF 		bl	LCD4SPI_WriteDATA
 339              	.LVL75:
  98:User/Source/LCD.c ****     LCD4SPI_WriteDATA(0x0E);	//0x0A	//0x02
 340              		.loc 1 98 5 view .LVU77
 341 01ca 0E20     		movs	r0, #14
 342 01cc FFF7FEFF 		bl	LCD4SPI_WriteDATA
 343              	.LVL76:
  99:User/Source/LCD.c ****     LCD4SPI_WriteDATA(0x06);	//0x06	//0x06
 344              		.loc 1 99 5 view .LVU78
 345 01d0 0620     		movs	r0, #6
 346 01d2 FFF7FEFF 		bl	LCD4SPI_WriteDATA
 347              	.LVL77:
 100:User/Source/LCD.c ****     LCD4SPI_WriteDATA(0x00);	//0x00	//0x00
 348              		.loc 1 100 5 view .LVU79
 349 01d6 0020     		movs	r0, #0
 350 01d8 FFF7FEFF 		bl	LCD4SPI_WriteDATA
 351              	.LVL78:
 101:User/Source/LCD.c **** 
 102:User/Source/LCD.c **** 
 103:User/Source/LCD.c ****     LCD4SPI_WriteCMD(0xD0);
 352              		.loc 1 103 5 view .LVU80
 353 01dc D020     		movs	r0, #208
 354 01de FFF7FEFF 		bl	LCD4SPI_WriteCMD
ARM GAS  C:\Users\Administrator\AppData\Local\Temp\ccqQWEB7.s 			page 9


 355              	.LVL79:
 104:User/Source/LCD.c ****     LCD4SPI_WriteDATA(0x04);
 356              		.loc 1 104 5 view .LVU81
 357 01e2 0420     		movs	r0, #4
 358 01e4 FFF7FEFF 		bl	LCD4SPI_WriteDATA
 359              	.LVL80:
 105:User/Source/LCD.c ****     LCD4SPI_WriteDATA(0x06);
 360              		.loc 1 105 5 view .LVU82
 361 01e8 0620     		movs	r0, #6
 362 01ea FFF7FEFF 		bl	LCD4SPI_WriteDATA
 363              	.LVL81:
 106:User/Source/LCD.c ****     LCD4SPI_WriteDATA(0x6B);
 364              		.loc 1 106 5 view .LVU83
 365 01ee 6B20     		movs	r0, #107
 366 01f0 FFF7FEFF 		bl	LCD4SPI_WriteDATA
 367              	.LVL82:
 107:User/Source/LCD.c ****     LCD4SPI_WriteDATA(0x0F);
 368              		.loc 1 107 5 view .LVU84
 369 01f4 0F20     		movs	r0, #15
 370 01f6 FFF7FEFF 		bl	LCD4SPI_WriteDATA
 371              	.LVL83:
 108:User/Source/LCD.c ****     LCD4SPI_WriteDATA(0x00);
 372              		.loc 1 108 5 view .LVU85
 373 01fa 0020     		movs	r0, #0
 374 01fc FFF7FEFF 		bl	LCD4SPI_WriteDATA
 375              	.LVL84:
 109:User/Source/LCD.c **** 
 110:User/Source/LCD.c ****     LCD4SPI_WriteCMD(0xD7);
 376              		.loc 1 110 5 view .LVU86
 377 0200 D720     		movs	r0, #215
 378 0202 FFF7FEFF 		bl	LCD4SPI_WriteCMD
 379              	.LVL85:
 111:User/Source/LCD.c ****     LCD4SPI_WriteDATA(0x00);
 380              		.loc 1 111 5 view .LVU87
 381 0206 0020     		movs	r0, #0
 382 0208 FFF7FEFF 		bl	LCD4SPI_WriteDATA
 383              	.LVL86:
 112:User/Source/LCD.c ****     LCD4SPI_WriteDATA(0x30);
 384              		.loc 1 112 5 view .LVU88
 385 020c 3020     		movs	r0, #48
 386 020e FFF7FEFF 		bl	LCD4SPI_WriteDATA
 387              	.LVL87:
 113:User/Source/LCD.c **** 
 114:User/Source/LCD.c ****     LCD4SPI_WriteCMD(0xE6);
 388              		.loc 1 114 5 view .LVU89
 389 0212 E620     		movs	r0, #230
 390 0214 FFF7FEFF 		bl	LCD4SPI_WriteCMD
 391              	.LVL88:
 115:User/Source/LCD.c ****     LCD4SPI_WriteDATA(0x10);
 392              		.loc 1 115 5 view .LVU90
 393 0218 1020     		movs	r0, #16
 394 021a FFF7FEFF 		bl	LCD4SPI_WriteDATA
 395              	.LVL89:
 116:User/Source/LCD.c **** 
 117:User/Source/LCD.c ****     LCD4SPI_WriteCMD(0xDE);
 396              		.loc 1 117 5 view .LVU91
 397 021e DE20     		movs	r0, #222
ARM GAS  C:\Users\Administrator\AppData\Local\Temp\ccqQWEB7.s 			page 10


 398 0220 FFF7FEFF 		bl	LCD4SPI_WriteCMD
 399              	.LVL90:
 118:User/Source/LCD.c ****     LCD4SPI_WriteDATA(0x01);
 400              		.loc 1 118 5 view .LVU92
 401 0224 0120     		movs	r0, #1
 402 0226 FFF7FEFF 		bl	LCD4SPI_WriteDATA
 403              	.LVL91:
 119:User/Source/LCD.c **** 
 120:User/Source/LCD.c **** 
 121:User/Source/LCD.c ****     // LCD4SPI_WriteCMD(0xBB);
 122:User/Source/LCD.c ****     // LCD4SPI_WriteDATA(0x04);
 123:User/Source/LCD.c **** 
 124:User/Source/LCD.c ****     // LCD4SPI_WriteCMD(0xD7);
 125:User/Source/LCD.c ****     // LCD4SPI_WriteDATA(0x12);
 126:User/Source/LCD.c **** 
 127:User/Source/LCD.c ****     LCD4SPI_WriteCMD(0xB7);
 404              		.loc 1 127 5 view .LVU93
 405 022a B720     		movs	r0, #183
 406 022c FFF7FEFF 		bl	LCD4SPI_WriteCMD
 407              	.LVL92:
 128:User/Source/LCD.c ****     LCD4SPI_WriteDATA(0x03);
 408              		.loc 1 128 5 view .LVU94
 409 0230 0320     		movs	r0, #3
 410 0232 FFF7FEFF 		bl	LCD4SPI_WriteDATA
 411              	.LVL93:
 129:User/Source/LCD.c ****     LCD4SPI_WriteDATA(0x13);
 412              		.loc 1 129 5 view .LVU95
 413 0236 1320     		movs	r0, #19
 414 0238 FFF7FEFF 		bl	LCD4SPI_WriteDATA
 415              	.LVL94:
 130:User/Source/LCD.c ****     LCD4SPI_WriteDATA(0xEF);
 416              		.loc 1 130 5 view .LVU96
 417 023c EF20     		movs	r0, #239
 418 023e FFF7FEFF 		bl	LCD4SPI_WriteDATA
 419              	.LVL95:
 131:User/Source/LCD.c ****     LCD4SPI_WriteDATA(0x35);
 420              		.loc 1 131 5 view .LVU97
 421 0242 3520     		movs	r0, #53
 422 0244 FFF7FEFF 		bl	LCD4SPI_WriteDATA
 423              	.LVL96:
 132:User/Source/LCD.c ****     LCD4SPI_WriteDATA(0x35);
 424              		.loc 1 132 5 view .LVU98
 425 0248 3520     		movs	r0, #53
 426 024a FFF7FEFF 		bl	LCD4SPI_WriteDATA
 427              	.LVL97:
 133:User/Source/LCD.c **** 
 134:User/Source/LCD.c ****     LCD4SPI_WriteCMD(0xC1);
 428              		.loc 1 134 5 view .LVU99
 429 024e C120     		movs	r0, #193
 430 0250 FFF7FEFF 		bl	LCD4SPI_WriteCMD
 431              	.LVL98:
 135:User/Source/LCD.c ****     LCD4SPI_WriteDATA(0x14);
 432              		.loc 1 135 5 view .LVU100
 433 0254 1420     		movs	r0, #20
 434 0256 FFF7FEFF 		bl	LCD4SPI_WriteDATA
 435              	.LVL99:
 136:User/Source/LCD.c ****     LCD4SPI_WriteDATA(0x15);
ARM GAS  C:\Users\Administrator\AppData\Local\Temp\ccqQWEB7.s 			page 11


 436              		.loc 1 136 5 view .LVU101
 437 025a 1520     		movs	r0, #21
 438 025c FFF7FEFF 		bl	LCD4SPI_WriteDATA
 439              	.LVL100:
 137:User/Source/LCD.c ****     LCD4SPI_WriteDATA(0xC0);
 440              		.loc 1 137 5 view .LVU102
 441 0260 C020     		movs	r0, #192
 442 0262 FFF7FEFF 		bl	LCD4SPI_WriteDATA
 443              	.LVL101:
 138:User/Source/LCD.c **** 
 139:User/Source/LCD.c ****     LCD4SPI_WriteCMD(0xC2);
 444              		.loc 1 139 5 view .LVU103
 445 0266 C220     		movs	r0, #194
 446 0268 FFF7FEFF 		bl	LCD4SPI_WriteCMD
 447              	.LVL102:
 140:User/Source/LCD.c ****     LCD4SPI_WriteDATA(0x06);
 448              		.loc 1 140 5 view .LVU104
 449 026c 0620     		movs	r0, #6
 450 026e FFF7FEFF 		bl	LCD4SPI_WriteDATA
 451              	.LVL103:
 141:User/Source/LCD.c ****     LCD4SPI_WriteDATA(0x3A);
 452              		.loc 1 141 5 view .LVU105
 453 0272 3A20     		movs	r0, #58
 454 0274 FFF7FEFF 		bl	LCD4SPI_WriteDATA
 455              	.LVL104:
 142:User/Source/LCD.c **** 
 143:User/Source/LCD.c ****     LCD4SPI_WriteCMD(0xC4);
 456              		.loc 1 143 5 view .LVU106
 457 0278 C420     		movs	r0, #196
 458 027a FFF7FEFF 		bl	LCD4SPI_WriteCMD
 459              	.LVL105:
 144:User/Source/LCD.c ****     LCD4SPI_WriteDATA(0x72);  // 00=60Hz 06=53Hz 08=42Hz
 460              		.loc 1 144 5 view .LVU107
 461 027e 7220     		movs	r0, #114
 462 0280 FFF7FEFF 		bl	LCD4SPI_WriteDATA
 463              	.LVL106:
 145:User/Source/LCD.c ****     LCD4SPI_WriteDATA(0x12);
 464              		.loc 1 145 5 view .LVU108
 465 0284 1220     		movs	r0, #18
 466 0286 FFF7FEFF 		bl	LCD4SPI_WriteDATA
 467              	.LVL107:
 146:User/Source/LCD.c **** 
 147:User/Source/LCD.c ****     // LCD4SPI_WriteCMD(0xC5);
 148:User/Source/LCD.c ****     // LCD4SPI_WriteDATA(0x03);
 149:User/Source/LCD.c **** 
 150:User/Source/LCD.c ****     LCD4SPI_WriteCMD(0xBE);
 468              		.loc 1 150 5 view .LVU109
 469 028a BE20     		movs	r0, #190
 470 028c FFF7FEFF 		bl	LCD4SPI_WriteCMD
 471              	.LVL108:
 151:User/Source/LCD.c ****     LCD4SPI_WriteDATA(0x00);
 472              		.loc 1 151 5 view .LVU110
 473 0290 0020     		movs	r0, #0
 474 0292 FFF7FEFF 		bl	LCD4SPI_WriteDATA
 475              	.LVL109:
 152:User/Source/LCD.c **** 
 153:User/Source/LCD.c ****     LCD4SPI_WriteCMD(0xDE);
ARM GAS  C:\Users\Administrator\AppData\Local\Temp\ccqQWEB7.s 			page 12


 476              		.loc 1 153 5 view .LVU111
 477 0296 DE20     		movs	r0, #222
 478 0298 FFF7FEFF 		bl	LCD4SPI_WriteCMD
 479              	.LVL110:
 154:User/Source/LCD.c ****     LCD4SPI_WriteDATA(0x00);
 480              		.loc 1 154 5 view .LVU112
 481 029c 0020     		movs	r0, #0
 482 029e FFF7FEFF 		bl	LCD4SPI_WriteDATA
 483              	.LVL111:
 155:User/Source/LCD.c **** 
 156:User/Source/LCD.c ****     LCD4SPI_WriteCMD(0x35);
 484              		.loc 1 156 5 view .LVU113
 485 02a2 3520     		movs	r0, #53
 486 02a4 FFF7FEFF 		bl	LCD4SPI_WriteCMD
 487              	.LVL112:
 157:User/Source/LCD.c ****     LCD4SPI_WriteDATA(0x00);
 488              		.loc 1 157 5 view .LVU114
 489 02a8 0020     		movs	r0, #0
 490 02aa FFF7FEFF 		bl	LCD4SPI_WriteDATA
 491              	.LVL113:
 158:User/Source/LCD.c **** 
 159:User/Source/LCD.c ****     LCD4SPI_WriteCMD(0x3A);
 492              		.loc 1 159 5 view .LVU115
 493 02ae 3A20     		movs	r0, #58
 494 02b0 FFF7FEFF 		bl	LCD4SPI_WriteCMD
 495              	.LVL114:
 160:User/Source/LCD.c ****     LCD4SPI_WriteDATA(0x05);//0x06=RGB666  0x05=RGB565
 496              		.loc 1 160 5 view .LVU116
 497 02b4 0520     		movs	r0, #5
 498 02b6 FFF7FEFF 		bl	LCD4SPI_WriteDATA
 499              	.LVL115:
 161:User/Source/LCD.c **** 
 162:User/Source/LCD.c ****     LCD4SPI_WriteCMD(0x2A);
 500              		.loc 1 162 5 view .LVU117
 501 02ba 2A20     		movs	r0, #42
 502 02bc FFF7FEFF 		bl	LCD4SPI_WriteCMD
 503              	.LVL116:
 163:User/Source/LCD.c ****     LCD4SPI_WriteDATA(0x00);
 504              		.loc 1 163 5 view .LVU118
 505 02c0 0020     		movs	r0, #0
 506 02c2 FFF7FEFF 		bl	LCD4SPI_WriteDATA
 507              	.LVL117:
 164:User/Source/LCD.c ****     LCD4SPI_WriteDATA(0x00);//Start_X=00
 508              		.loc 1 164 5 view .LVU119
 509 02c6 0020     		movs	r0, #0
 510 02c8 FFF7FEFF 		bl	LCD4SPI_WriteDATA
 511              	.LVL118:
 165:User/Source/LCD.c ****     LCD4SPI_WriteDATA(0x00);
 512              		.loc 1 165 5 view .LVU120
 513 02cc 0020     		movs	r0, #0
 514 02ce FFF7FEFF 		bl	LCD4SPI_WriteDATA
 515              	.LVL119:
 166:User/Source/LCD.c ****     LCD4SPI_WriteDATA(0xEF);//End_X=239
 516              		.loc 1 166 5 view .LVU121
 517 02d2 EF20     		movs	r0, #239
 518 02d4 FFF7FEFF 		bl	LCD4SPI_WriteDATA
 519              	.LVL120:
ARM GAS  C:\Users\Administrator\AppData\Local\Temp\ccqQWEB7.s 			page 13


 167:User/Source/LCD.c **** 
 168:User/Source/LCD.c ****     LCD4SPI_WriteCMD(0x2B);
 520              		.loc 1 168 5 view .LVU122
 521 02d8 2B20     		movs	r0, #43
 522 02da FFF7FEFF 		bl	LCD4SPI_WriteCMD
 523              	.LVL121:
 169:User/Source/LCD.c ****     LCD4SPI_WriteDATA(0x00);
 524              		.loc 1 169 5 view .LVU123
 525 02de 0020     		movs	r0, #0
 526 02e0 FFF7FEFF 		bl	LCD4SPI_WriteDATA
 527              	.LVL122:
 170:User/Source/LCD.c ****     LCD4SPI_WriteDATA(0x00);//Start_Y=00
 528              		.loc 1 170 5 view .LVU124
 529 02e4 0020     		movs	r0, #0
 530 02e6 FFF7FEFF 		bl	LCD4SPI_WriteDATA
 531              	.LVL123:
 171:User/Source/LCD.c ****     LCD4SPI_WriteDATA(0x01);
 532              		.loc 1 171 5 view .LVU125
 533 02ea 0120     		movs	r0, #1
 534 02ec FFF7FEFF 		bl	LCD4SPI_WriteDATA
 535              	.LVL124:
 172:User/Source/LCD.c ****     LCD4SPI_WriteDATA(0x27);//End_Y=295
 536              		.loc 1 172 5 view .LVU126
 537 02f0 2720     		movs	r0, #39
 538 02f2 FFF7FEFF 		bl	LCD4SPI_WriteDATA
 539              	.LVL125:
 173:User/Source/LCD.c **** 
 174:User/Source/LCD.c **** 
 175:User/Source/LCD.c ****     LCD4SPI_WriteCMD(0x11);
 540              		.loc 1 175 5 view .LVU127
 541 02f6 1120     		movs	r0, #17
 542 02f8 FFF7FEFF 		bl	LCD4SPI_WriteCMD
 543              	.LVL126:
 176:User/Source/LCD.c ****     HAL_Delay(120);
 544              		.loc 1 176 5 view .LVU128
 545 02fc 7820     		movs	r0, #120
 546 02fe FFF7FEFF 		bl	HAL_Delay
 547              	.LVL127:
 177:User/Source/LCD.c **** 
 178:User/Source/LCD.c ****     // LCD4SPI_WriteCMD(0xDE);
 179:User/Source/LCD.c ****     // LCD4SPI_WriteDATA(0x03);
 180:User/Source/LCD.c **** 
 181:User/Source/LCD.c **** 
 182:User/Source/LCD.c ****     // LCD4SPI_WriteCMD(0xB5);
 183:User/Source/LCD.c ****     // LCD4SPI_WriteDATA(0x23);
 184:User/Source/LCD.c **** 
 185:User/Source/LCD.c ****     // LCD4SPI_WriteCMD(0xDE);
 186:User/Source/LCD.c ****     // LCD4SPI_WriteDATA(0x00);
 187:User/Source/LCD.c **** 
 188:User/Source/LCD.c **** 
 189:User/Source/LCD.c ****     LCD4SPI_WriteCMD(0x29);
 548              		.loc 1 189 5 view .LVU129
 549 0302 2920     		movs	r0, #41
 550 0304 FFF7FEFF 		bl	LCD4SPI_WriteCMD
 551              	.LVL128:
 190:User/Source/LCD.c ****     HAL_Delay(100);
 552              		.loc 1 190 5 view .LVU130
ARM GAS  C:\Users\Administrator\AppData\Local\Temp\ccqQWEB7.s 			page 14


 553 0308 6420     		movs	r0, #100
 554 030a FFF7FEFF 		bl	HAL_Delay
 555              	.LVL129:
 191:User/Source/LCD.c **** 
 192:User/Source/LCD.c **** 
 193:User/Source/LCD.c ****     LCD4SPI_WriteCMD(0x2C);
 556              		.loc 1 193 5 view .LVU131
 557 030e 2C20     		movs	r0, #44
 558 0310 FFF7FEFF 		bl	LCD4SPI_WriteCMD
 559              	.LVL130:
 194:User/Source/LCD.c ****     for (int i = 0; i < (71040 * 2); i++)
 560              		.loc 1 194 5 view .LVU132
 561              	.LBB2:
 562              		.loc 1 194 10 view .LVU133
 563              		.loc 1 194 14 is_stmt 0 view .LVU134
 564 0314 0024     		movs	r4, #0
 565              		.loc 1 194 5 view .LVU135
 566 0316 03E0     		b	.L2
 567              	.LVL131:
 568              	.L3:
 195:User/Source/LCD.c ****     {
 196:User/Source/LCD.c ****         LCD4SPI_WriteDATA(0xFF);
 569              		.loc 1 196 9 is_stmt 1 view .LVU136
 570 0318 FF20     		movs	r0, #255
 571 031a FFF7FEFF 		bl	LCD4SPI_WriteDATA
 572              	.LVL132:
 194:User/Source/LCD.c ****     for (int i = 0; i < (71040 * 2); i++)
 573              		.loc 1 194 39 discriminator 3 view .LVU137
 574 031e 0134     		adds	r4, r4, #1
 575              	.LVL133:
 576              	.L2:
 194:User/Source/LCD.c ****     for (int i = 0; i < (71040 * 2); i++)
 577              		.loc 1 194 23 discriminator 1 view .LVU138
 578 0320 014B     		ldr	r3, .L5
 579 0322 9C42     		cmp	r4, r3
 580 0324 F8DD     		ble	.L3
 581              	.LBE2:
 197:User/Source/LCD.c ****     }
 198:User/Source/LCD.c ****     
 199:User/Source/LCD.c **** 
 200:User/Source/LCD.c **** }
 582              		.loc 1 200 1 is_stmt 0 view .LVU139
 583 0326 10BD     		pop	{r4, pc}
 584              	.LVL134:
 585              	.L6:
 586              		.loc 1 200 1 view .LVU140
 587              		.align	2
 588              	.L5:
 589 0328 FF2A0200 		.word	142079
 590              		.cfi_endproc
 591              	.LFE75:
 593              		.text
 594              	.Letext0:
 595              		.file 2 "D:/gcc-arm/14.3 rel1/arm-none-eabi/include/machine/_default_types.h"
 596              		.file 3 "D:/gcc-arm/14.3 rel1/arm-none-eabi/include/sys/_stdint.h"
 597              		.file 4 "Drivers/STM32F1xx_HAL_Driver/Inc/stm32f1xx_hal.h"
 598              		.file 5 "User/Include/LCD4SPI.h"
ARM GAS  C:\Users\Administrator\AppData\Local\Temp\ccqQWEB7.s 			page 15


ARM GAS  C:\Users\Administrator\AppData\Local\Temp\ccqQWEB7.s 			page 16


DEFINED SYMBOLS
                            *ABS*:00000000 LCD.c
C:\Users\Administrator\AppData\Local\Temp\ccqQWEB7.s:19     .text.LCDtest:00000000 $t
C:\Users\Administrator\AppData\Local\Temp\ccqQWEB7.s:25     .text.LCDtest:00000000 LCDtest
C:\Users\Administrator\AppData\Local\Temp\ccqQWEB7.s:589    .text.LCDtest:00000328 $d

UNDEFINED SYMBOLS
LCD4SPI_WriteCMD
LCD4SPI_WriteDATA
HAL_Delay
