ARM GAS  C:\Users\Administrator\AppData\Local\Temp\ccMLxhHy.s 			page 1


   1              		.cpu cortex-m3
   2              		.arch armv7-m
   3              		.fpu softvfp
   4              		.eabi_attribute 20, 1
   5              		.eabi_attribute 21, 1
   6              		.eabi_attribute 23, 3
   7              		.eabi_attribute 24, 1
   8              		.eabi_attribute 25, 1
   9              		.eabi_attribute 26, 1
  10              		.eabi_attribute 30, 1
  11              		.eabi_attribute 34, 1
  12              		.eabi_attribute 18, 4
  13              		.file	"Tasklist.c"
  14              		.text
  15              	.Ltext0:
  16              		.cfi_sections	.debug_frame
  17              		.file 1 "User/Source/Tasklist.c"
  18              		.section	.text.SearchTask,"ax",%progbits
  19              		.align	1
  20              		.syntax unified
  21              		.thumb
  22              		.thumb_func
  24              	SearchTask:
  25              	.LFB75:
   1:User/Source/Tasklist.c **** #include "Tasklist.h"
   2:User/Source/Tasklist.c **** 
   3:User/Source/Tasklist.c **** 
   4:User/Source/Tasklist.c **** 
   5:User/Source/Tasklist.c **** /*定义变量*************************************************************************************
   6:User/Source/Tasklist.c **** 
   7:User/Source/Tasklist.c **** //创建实例
   8:User/Source/Tasklist.c **** GetCDCDate_t GetCDCDate;
   9:User/Source/Tasklist.c **** 
  10:User/Source/Tasklist.c **** 
  11:User/Source/Tasklist.c **** //任务列表
  12:User/Source/Tasklist.c **** static Tasklist_t Tasklist = {
  13:User/Source/Tasklist.c ****     .AdjustVDD = 0x01,                        //调整ESL模组使用的VDD
  14:User/Source/Tasklist.c **** };
  15:User/Source/Tasklist.c **** 
  16:User/Source/Tasklist.c **** /*定义变量*************************************************************************************
  17:User/Source/Tasklist.c **** 
  18:User/Source/Tasklist.c **** 
  19:User/Source/Tasklist.c **** 
  20:User/Source/Tasklist.c **** /**
  21:User/Source/Tasklist.c ****  * @brief  根据数据包头，查找对应任务
  22:User/Source/Tasklist.c ****  * @retval  CDC数据包的第0位0xFE和第1位是标志0xEF，第1位数据是任务索引
  23:User/Source/Tasklist.c ****  */
  24:User/Source/Tasklist.c **** static uint8_t SearchTask(void)
  25:User/Source/Tasklist.c **** {
  26              		.loc 1 25 1 view -0
  27              		.cfi_startproc
  28              		@ args = 0, pretend = 0, frame = 0
  29              		@ frame_needed = 0, uses_anonymous_args = 0
  30              		@ link register save eliminated.
  26:User/Source/Tasklist.c ****     //判断该数据包的包头是任务相关数据
  27:User/Source/Tasklist.c ****     if ((GetCDCDate.GetCDCDateBuffer[0] = 0xFE) && (GetCDCDate.GetCDCDateBuffer[2] = 0xEF))
  31              		.loc 1 27 5 view .LVU1
ARM GAS  C:\Users\Administrator\AppData\Local\Temp\ccMLxhHy.s 			page 2


  32              		.loc 1 27 41 is_stmt 0 view .LVU2
  33 0000 034B     		ldr	r3, .L2
  34 0002 FE22     		movs	r2, #254
  35 0004 1A70     		strb	r2, [r3]
  36              		.loc 1 27 84 discriminator 1 view .LVU3
  37 0006 EF22     		movs	r2, #239
  38 0008 9A70     		strb	r2, [r3, #2]
  39              	.LBB2:
  28:User/Source/Tasklist.c ****     {
  29:User/Source/Tasklist.c ****         uint8_t TaskIndx = GetCDCDate.GetCDCDateBuffer[1];
  40              		.loc 1 29 9 is_stmt 1 view .LVU4
  41              	.LVL0:
  30:User/Source/Tasklist.c ****         //返回任务索引
  31:User/Source/Tasklist.c ****         return TaskIndx;
  42              		.loc 1 31 9 view .LVU5
  43              	.LBE2:
  32:User/Source/Tasklist.c ****     }
  33:User/Source/Tasklist.c **** }
  44              		.loc 1 33 1 is_stmt 0 view .LVU6
  45 000a 5878     		ldrb	r0, [r3, #1]	@ zero_extendqisi2
  46 000c 7047     		bx	lr
  47              	.L3:
  48 000e 00BF     		.align	2
  49              	.L2:
  50 0010 00000000 		.word	GetCDCDate
  51              		.cfi_endproc
  52              	.LFE75:
  54              		.section	.rodata.TaskRun.str1.4,"aMS",%progbits,1
  55              		.align	2
  56              	.LC0:
  57 0000 E5BC80E5 		.ascii	"\345\274\200\345\247\213\350\257\273\345\206\231\346"
  57      A78BE8AF 
  57      BBE58699 
  57      E6
  58 000d 95B0E5AD 		.ascii	"\225\260\345\255\227\347\224\265\344\275\215\345\231"
  58      97E794B5 
  58      E4BD8DE5 
  58      99
  59 001a A8E695B0 		.ascii	"\250\346\225\260\346\215\256\015\000"
  59      E68DAE0D 
  59      00
  60              		.section	.text.TaskRun,"ax",%progbits
  61              		.align	1
  62              		.global	TaskRun
  63              		.syntax unified
  64              		.thumb
  65              		.thumb_func
  67              	TaskRun:
  68              	.LFB76:
  34:User/Source/Tasklist.c **** 
  35:User/Source/Tasklist.c **** 
  36:User/Source/Tasklist.c **** /**
  37:User/Source/Tasklist.c ****  * @brief  执行对应任务
  38:User/Source/Tasklist.c ****  */
  39:User/Source/Tasklist.c **** void TaskRun(void)
  40:User/Source/Tasklist.c **** {
  69              		.loc 1 40 1 is_stmt 1 view -0
ARM GAS  C:\Users\Administrator\AppData\Local\Temp\ccMLxhHy.s 			page 3


  70              		.cfi_startproc
  71              		@ args = 0, pretend = 0, frame = 0
  72              		@ frame_needed = 0, uses_anonymous_args = 0
  73 0000 08B5     		push	{r3, lr}
  74              	.LCFI0:
  75              		.cfi_def_cfa_offset 8
  76              		.cfi_offset 3, -8
  77              		.cfi_offset 14, -4
  41:User/Source/Tasklist.c ****     //如果有新的数据没有处理，就开始匹配任务
  42:User/Source/Tasklist.c ****     if (GetCDCDate.GetCDCDateFlag)
  78              		.loc 1 42 5 view .LVU8
  79              		.loc 1 42 19 is_stmt 0 view .LVU9
  80 0002 0C4B     		ldr	r3, .L10
  81 0004 93F84130 		ldrb	r3, [r3, #65]	@ zero_extendqisi2
  82              		.loc 1 42 8 view .LVU10
  83 0008 03B9     		cbnz	r3, .L8
  84              	.L4:
  43:User/Source/Tasklist.c ****     {
  44:User/Source/Tasklist.c ****         //调整ESL模组使用的VDD
  45:User/Source/Tasklist.c ****         if (SearchTask() == Tasklist.AdjustVDD)
  46:User/Source/Tasklist.c ****         {
  47:User/Source/Tasklist.c ****             printf("开始读写数字电位器数据\r\n");
  48:User/Source/Tasklist.c ****             DPPTM_RW(GetCDCDate.GetCDCDateBuffer[3], GetCDCDate.GetCDCDateBuffer[4], GetCDCDate.Get
  49:User/Source/Tasklist.c ****         }
  50:User/Source/Tasklist.c **** 
  51:User/Source/Tasklist.c **** 
  52:User/Source/Tasklist.c ****         //数据处理完成，标志位置0，开始接收下一个数据包
  53:User/Source/Tasklist.c ****         GetCDCDate.GetCDCDateFlag = 0;
  54:User/Source/Tasklist.c ****     }
  55:User/Source/Tasklist.c **** }
  85              		.loc 1 55 1 view .LVU11
  86 000a 08BD     		pop	{r3, pc}
  87              	.L8:
  45:User/Source/Tasklist.c ****         {
  88              		.loc 1 45 9 is_stmt 1 view .LVU12
  45:User/Source/Tasklist.c ****         {
  89              		.loc 1 45 13 is_stmt 0 view .LVU13
  90 000c FFF7FEFF 		bl	SearchTask
  91              	.LVL1:
  45:User/Source/Tasklist.c ****         {
  92              		.loc 1 45 12 discriminator 1 view .LVU14
  93 0010 0128     		cmp	r0, #1
  94 0012 04D0     		beq	.L9
  95              	.L6:
  53:User/Source/Tasklist.c ****     }
  96              		.loc 1 53 9 is_stmt 1 view .LVU15
  53:User/Source/Tasklist.c ****     }
  97              		.loc 1 53 35 is_stmt 0 view .LVU16
  98 0014 074B     		ldr	r3, .L10
  99 0016 0022     		movs	r2, #0
 100 0018 83F84120 		strb	r2, [r3, #65]
 101              		.loc 1 55 1 view .LVU17
 102 001c F5E7     		b	.L4
 103              	.L9:
  47:User/Source/Tasklist.c ****             DPPTM_RW(GetCDCDate.GetCDCDateBuffer[3], GetCDCDate.GetCDCDateBuffer[4], GetCDCDate.Get
 104              		.loc 1 47 13 is_stmt 1 view .LVU18
 105 001e 0648     		ldr	r0, .L10+4
ARM GAS  C:\Users\Administrator\AppData\Local\Temp\ccMLxhHy.s 			page 4


 106 0020 FFF7FEFF 		bl	puts
 107              	.LVL2:
  48:User/Source/Tasklist.c ****         }
 108              		.loc 1 48 13 view .LVU19
 109 0024 034B     		ldr	r3, .L10
 110 0026 5A79     		ldrb	r2, [r3, #5]	@ zero_extendqisi2
 111 0028 1979     		ldrb	r1, [r3, #4]	@ zero_extendqisi2
 112 002a D878     		ldrb	r0, [r3, #3]	@ zero_extendqisi2
 113 002c FFF7FEFF 		bl	DPPTM_RW
 114              	.LVL3:
 115 0030 F0E7     		b	.L6
 116              	.L11:
 117 0032 00BF     		.align	2
 118              	.L10:
 119 0034 00000000 		.word	GetCDCDate
 120 0038 00000000 		.word	.LC0
 121              		.cfi_endproc
 122              	.LFE76:
 124              		.global	GetCDCDate
 125              		.section	.bss.GetCDCDate,"aw",%nobits
 126              		.align	2
 129              	GetCDCDate:
 130 0000 00000000 		.space	66
 130      00000000 
 130      00000000 
 130      00000000 
 130      00000000 
 131              		.text
 132              	.Letext0:
 133              		.file 2 "D:/gcc-arm/14.3 rel1/arm-none-eabi/include/machine/_default_types.h"
 134              		.file 3 "D:/gcc-arm/14.3 rel1/arm-none-eabi/include/sys/_stdint.h"
 135              		.file 4 "User/Include/Tasklist.h"
 136              		.file 5 "User/Include/DPPTM.h"
 137              		.file 6 "<built-in>"
ARM GAS  C:\Users\Administrator\AppData\Local\Temp\ccMLxhHy.s 			page 5


DEFINED SYMBOLS
                            *ABS*:00000000 Tasklist.c
C:\Users\Administrator\AppData\Local\Temp\ccMLxhHy.s:19     .text.SearchTask:00000000 $t
C:\Users\Administrator\AppData\Local\Temp\ccMLxhHy.s:24     .text.SearchTask:00000000 SearchTask
C:\Users\Administrator\AppData\Local\Temp\ccMLxhHy.s:50     .text.SearchTask:00000010 $d
C:\Users\Administrator\AppData\Local\Temp\ccMLxhHy.s:129    .bss.GetCDCDate:00000000 GetCDCDate
C:\Users\Administrator\AppData\Local\Temp\ccMLxhHy.s:55     .rodata.TaskRun.str1.4:00000000 $d
C:\Users\Administrator\AppData\Local\Temp\ccMLxhHy.s:61     .text.TaskRun:00000000 $t
C:\Users\Administrator\AppData\Local\Temp\ccMLxhHy.s:67     .text.TaskRun:00000000 TaskRun
C:\Users\Administrator\AppData\Local\Temp\ccMLxhHy.s:119    .text.TaskRun:00000034 $d
C:\Users\Administrator\AppData\Local\Temp\ccMLxhHy.s:126    .bss.GetCDCDate:00000000 $d

UNDEFINED SYMBOLS
puts
DPPTM_RW
